

HI-TECH Software PIC LITE Macro Assembler V9.82 build 9453 
                                                                                               Sat Aug 06 16:43:12 2016

HI-TECH Software Omniscient Code Generator (Lite mode) build 9453
     1  0000                     opt subtitle "HI-TECH Software Omniscient Code Generator (Lite mode) build 9453"
     2                           
     3                           opt pagewidth 120
     4                           
     5                           	opt lm
     6                           
     7                           	processor	16F877A
     8                           clrc	macro
     9                           	bcf	3,0
    10  0000                     	endm
    11                           clrz	macro
    12                           	bcf	3,2
    13  0000                     	endm
    14                           setc	macro
    15                           	bsf	3,0
    16  0000                     	endm
    17                           setz	macro
    18                           	bsf	3,2
    19  0000                     	endm
    20                           skipc	macro
    21                           	btfss	3,0
    22  0000                     	endm
    23                           skipz	macro
    24                           	btfss	3,2
    25  0000                     	endm
    26                           skipnc	macro
    27                           	btfsc	3,0
    28  0000                     	endm
    29                           skipnz	macro
    30                           	btfsc	3,2
    31  0000                     	endm
    32  0000                     indf	equ	0
    33  0000                     indf0	equ	0
    34  0002                     pc	equ	2
    35  0002                     pcl	equ	2
    36  0003                     status	equ	3
    37  0004                     fsr	equ	4
    38  0004                     fsr0	equ	4
    39  0001                     c	equ	1
    40  0000                     z	equ	0
    41  000A                     pclath	equ	10
    42                           	FNCALL	_main,_init_adc
    43                           	FNCALL	_main,_lcd_init
    44                           	FNCALL	_main,_lcd_goto
    45                           	FNCALL	_main,_lcd_puts
    46                           	FNCALL	_main,_read_adc
    47                           	FNCALL	_main,_itoa
    48                           	FNCALL	_main,___lwtoft
    49                           	FNCALL	_main,___ftmul
    50                           	FNCALL	_main,___fttol
    51                           	FNCALL	_main,_DelayMs
    52                           	FNCALL	_lcd_goto,_send
    53                           	FNCALL	_lcd_puts,_send
    54                           	FNCALL	_lcd_init,_LCD_STROBE
    55                           	FNCALL	_lcd_init,_send
    56                           	FNCALL	_itoa,_utoa
    57                           	FNCALL	_send,_LCD_STROBE
    58                           	FNCALL	___lwtoft,___ftpack
    59                           	FNCALL	___ftmul,___ftpack
    60                           	FNCALL	_utoa,___lwdiv
    61                           	FNCALL	_utoa,___lwmod
    62                           	FNCALL	_read_adc,_DelayMs
    63                           	FNROOT	_main
    64                           	global	_buf1
    65                           	global	_k
    66                           	global	_v
    67                           	global	_mode
    68                           	global	_buf
    69                           	global	_adc_val
    70                           	global	_ADCON0
    71                           psect	text418,local,class=CODE,delta=2
    72                           global __ptext418
    73  0000                     __ptext418:
    74  001F                     _ADCON0	set	31
    75                           	global	_ADRESH
    76  001E                     _ADRESH	set	30
    77                           	global	_PORTD
    78  0008                     _PORTD	set	8
    79                           	global	_CARRY
    80  0018                     _CARRY	set	24
    81                           	global	_GIE
    82  005F                     _GIE	set	95
    83                           	global	_GO
    84  00FA                     _GO	set	250
    85                           	global	_RD2
    86  0042                     _RD2	set	66
    87                           	global	_RD3
    88  0043                     _RD3	set	67
    89                           	global	_ADCON1
    90  009F                     _ADCON1	set	159
    91                           	global	_ADRESL
    92  009E                     _ADRESL	set	158
    93                           	global	_TRISA
    94  0085                     _TRISA	set	133
    95                           	global	_TRISD
    96  0088                     _TRISD	set	136
    97                           	global	_EEADR
    98  010D                     _EEADR	set	269
    99                           	global	_EEDATA
   100  010C                     _EEDATA	set	268
   101                           	global	_EECON1
   102  018C                     _EECON1	set	396
   103                           	global	_EECON2
   104  018D                     _EECON2	set	397
   105                           	global	_RD
   106  0C60                     _RD	set	3168
   107                           	global	_WR
   108  0C61                     _WR	set	3169
   109                           	global	_WREN
   110  0C62                     _WREN	set	3170
   111                           psect	strings,class=STRING,delta=2
   112                           global __pstrings
   113  0003                     __pstrings:
   114                           ;	global	stringdir,stringtab,__stringbase
   115  0003                     stringtab:
   116                           ;	String table - string pointers are 1 byte each
   117  0003  1BFF               	btfsc	(btemp+1),7
   118  0004  280D               	ljmp	stringcode
   119  0005  1383               	bcf	status,7
   120  0006  187F               	btfsc	(btemp+1),0
   121  0007  1783               	bsf	status,7
   122  0008  0800               	movf	indf,w
   123  0009  0A84               	incf fsr
   124  000A  1903               skipnz
   125  000B  0AFF               incf btemp+1
   126  000C  0008               	return
   127  000D                     stringcode:stringdir:
      + 000D                     stringdir:	
   128  000D  3000               movlw high(stringdir)
   129  000E  008A               movwf pclath
   130  000F  0804               movf fsr,w
   131  0010  0A84               incf fsr
   132  0011  0782               	addwf pc
   133  0012                     __stringbase:
   134  0012  3400               	retlw	0
   135                           psect	strings
   136                           	
   137  0013                     STR_3:	
   138  0013  3420               	retlw	32	;' '
   139  0014  3420               	retlw	32	;' '
   140  0015  3420               	retlw	32	;' '
   141  0016  3420               	retlw	32	;' '
   142  0017  3420               	retlw	32	;' '
   143  0018  3420               	retlw	32	;' '
   144  0019  3420               	retlw	32	;' '
   145  001A  3420               	retlw	32	;' '
   146  001B  3420               	retlw	32	;' '
   147  001C  3420               	retlw	32	;' '
   148  001D  3420               	retlw	32	;' '
   149  001E  3420               	retlw	32	;' '
   150  001F  3420               	retlw	32	;' '
   151  0020  3420               	retlw	32	;' '
   152  0021  3400               	retlw	0
   153                           psect	strings
   154                           	
   155  0022                     STR_1:	
   156  0022  3454               	retlw	84	;'T'
   157  0023  3445               	retlw	69	;'E'
   158  0024  344D               	retlw	77	;'M'
   159  0025  3450               	retlw	80	;'P'
   160  0026  3445               	retlw	69	;'E'
   161  0027  3452               	retlw	82	;'R'
   162  0028  3441               	retlw	65	;'A'
   163  0029  3454               	retlw	84	;'T'
   164  002A  3455               	retlw	85	;'U'
   165  002B  3452               	retlw	82	;'R'
   166  002C  3445               	retlw	69	;'E'
   167  002D  3400               	retlw	0
   168                           psect	strings
   169                           	
   170  002E                     STR_2:	
   171  002E  3420               	retlw	32	;' '
   172  002F  3463               	retlw	99	;'c'
   173  0030  3400               	retlw	0
   174                           psect	strings
   175                           	file	"we.as"
   176                           	line	#
   177                           psect cinit,class=CODE,delta=2
   178                           global start_initialization
   179  024F                     start_initialization:
   180                           
   181                           psect	bitbssBANK0,class=BANK0,bit,space=1
   182                           global __pbitbssBANK0
   183  0260                     __pbitbssBANK0:
   184  0260                     _mode:
   185  0260                            ds      1
   186                           
   187                           psect	bssBANK0,class=BANK0,space=1
   188                           global __pbssBANK0
   189  003E                     __pbssBANK0:
   190  003E                     _buf1:
   191  003E                            ds      4
   192                           
   193  0042                     _k:
   194  0042                            ds      2
   195                           
   196  0044                     _v:
   197  0044                            ds      2
   198                           
   199  0046                     _buf:
   200  0046                            ds      4
   201                           
   202  004A                     _adc_val:
   203  004A                            ds      2
   204                           
   205                           ; Clear objects allocated to BITBANK0
   206                           psect cinit,class=CODE,delta=2
   207  024F  01CC               	clrf	((__pbitbssBANK0/8)+0)&07Fh
   208                           ; Clear objects allocated to BANK0
   209                           psect cinit,class=CODE,delta=2
   210  0250  01BE               	clrf	((__pbssBANK0)+0)&07Fh
   211  0251  01BF               	clrf	((__pbssBANK0)+1)&07Fh
   212  0252  01C0               	clrf	((__pbssBANK0)+2)&07Fh
   213  0253  01C1               	clrf	((__pbssBANK0)+3)&07Fh
   214  0254  01C2               	clrf	((__pbssBANK0)+4)&07Fh
   215  0255  01C3               	clrf	((__pbssBANK0)+5)&07Fh
   216  0256  01C4               	clrf	((__pbssBANK0)+6)&07Fh
   217  0257  01C5               	clrf	((__pbssBANK0)+7)&07Fh
   218  0258  01C6               	clrf	((__pbssBANK0)+8)&07Fh
   219  0259  01C7               	clrf	((__pbssBANK0)+9)&07Fh
   220  025A  01C8               	clrf	((__pbssBANK0)+10)&07Fh
   221  025B  01C9               	clrf	((__pbssBANK0)+11)&07Fh
   222  025C  01CA               	clrf	((__pbssBANK0)+12)&07Fh
   223  025D  01CB               	clrf	((__pbssBANK0)+13)&07Fh
   224                           psect cinit,class=CODE,delta=2
   225                           global end_of_initialization
   226                           
   227                           ;End of C runtime variable initialization code
   228                           
   229  025E                     end_of_initialization:
   230  025E  0183               clrf status
   231  025F  120A  118A  2E4B   ljmp _main	;jump to C main() function
   232                           psect	cstackCOMMON,class=COMMON,space=1
   233                           global __pcstackCOMMON
   234  0070                     __pcstackCOMMON:
   235                           	global	?_LCD_STROBE
   236  0070                     ?_LCD_STROBE:	; 0 bytes @ 0x0
   237                           	global	??_LCD_STROBE
   238  0070                     ??_LCD_STROBE:	; 0 bytes @ 0x0
   239                           	global	?_send
   240  0070                     ?_send:	; 0 bytes @ 0x0
   241                           	global	?_init_adc
   242  0070                     ?_init_adc:	; 0 bytes @ 0x0
   243                           	global	??_init_adc
   244  0070                     ??_init_adc:	; 0 bytes @ 0x0
   245                           	global	?_DelayMs
   246  0070                     ?_DelayMs:	; 0 bytes @ 0x0
   247                           	global	??_DelayMs
   248  0070                     ??_DelayMs:	; 0 bytes @ 0x0
   249                           	global	?_lcd_init
   250  0070                     ?_lcd_init:	; 0 bytes @ 0x0
   251                           	global	?_main
   252  0070                     ?_main:	; 0 bytes @ 0x0
   253                           	global	?___lwdiv
   254  0070                     ?___lwdiv:	; 2 bytes @ 0x0
   255                           	global	?___lwmod
   256  0070                     ?___lwmod:	; 2 bytes @ 0x0
   257                           	global	?___ftpack
   258  0070                     ?___ftpack:	; 3 bytes @ 0x0
   259                           	global	___lwdiv@divisor
   260  0070                     ___lwdiv@divisor:	; 2 bytes @ 0x0
   261                           	global	___lwmod@divisor
   262  0070                     ___lwmod@divisor:	; 2 bytes @ 0x0
   263                           	global	___ftpack@arg
   264  0070                     ___ftpack@arg:	; 3 bytes @ 0x0
   265  0070                     	ds	1
   266                           	global	DelayMs@cnt
   267  0071                     DelayMs@cnt:	; 1 bytes @ 0x1
   268  0071                     	ds	1
   269                           	global	??_send
   270  0072                     ??_send:	; 0 bytes @ 0x2
   271                           	global	DelayMs@i
   272  0072                     DelayMs@i:	; 1 bytes @ 0x2
   273                           	global	___lwdiv@dividend
   274  0072                     ___lwdiv@dividend:	; 2 bytes @ 0x2
   275                           	global	___lwmod@dividend
   276  0072                     ___lwmod@dividend:	; 2 bytes @ 0x2
   277  0072                     	ds	1
   278                           	global	DelayMs@_dcnt
   279  0073                     DelayMs@_dcnt:	; 1 bytes @ 0x3
   280                           	global	___ftpack@exp
   281  0073                     ___ftpack@exp:	; 1 bytes @ 0x3
   282  0073                     	ds	1
   283                           	global	??___lwdiv
   284  0074                     ??___lwdiv:	; 0 bytes @ 0x4
   285                           	global	??___lwmod
   286  0074                     ??___lwmod:	; 0 bytes @ 0x4
   287                           	global	?_read_adc
   288  0074                     ?_read_adc:	; 2 bytes @ 0x4
   289                           	global	send@temp
   290  0074                     send@temp:	; 1 bytes @ 0x4
   291                           	global	___ftpack@sign
   292  0074                     ___ftpack@sign:	; 1 bytes @ 0x4
   293  0074                     	ds	1
   294                           	global	??___ftpack
   295  0075                     ??___ftpack:	; 0 bytes @ 0x5
   296                           	global	send@x
   297  0075                     send@x:	; 1 bytes @ 0x5
   298                           	global	___lwmod@counter
   299  0075                     ___lwmod@counter:	; 1 bytes @ 0x5
   300                           	global	___lwdiv@quotient
   301  0075                     ___lwdiv@quotient:	; 2 bytes @ 0x5
   302  0075                     	ds	1
   303                           	global	??_read_adc
   304  0076                     ??_read_adc:	; 0 bytes @ 0x6
   305                           	global	??_lcd_init
   306  0076                     ??_lcd_init:	; 0 bytes @ 0x6
   307                           	global	?_lcd_puts
   308  0076                     ?_lcd_puts:	; 0 bytes @ 0x6
   309                           	global	?_lcd_goto
   310  0076                     ?_lcd_goto:	; 0 bytes @ 0x6
   311                           	global	lcd_goto@pos
   312  0076                     lcd_goto@pos:	; 1 bytes @ 0x6
   313                           	global	lcd_puts@s
   314  0076                     lcd_puts@s:	; 2 bytes @ 0x6
   315  0076                     	ds	1
   316                           	global	??_lcd_goto
   317  0077                     ??_lcd_goto:	; 0 bytes @ 0x7
   318                           	global	lcd_goto@line
   319  0077                     lcd_goto@line:	; 1 bytes @ 0x7
   320                           	global	___lwdiv@counter
   321  0077                     ___lwdiv@counter:	; 1 bytes @ 0x7
   322  0077                     	ds	1
   323                           	global	??_lcd_puts
   324  0078                     ??_lcd_puts:	; 0 bytes @ 0x8
   325                           	global	?_utoa
   326  0078                     ?_utoa:	; 1 bytes @ 0x8
   327                           	global	?___fttol
   328  0078                     ?___fttol:	; 4 bytes @ 0x8
   329                           	global	utoa@val
   330  0078                     utoa@val:	; 2 bytes @ 0x8
   331                           	global	___fttol@f1
   332  0078                     ___fttol@f1:	; 3 bytes @ 0x8
   333  0078                     	ds	2
   334                           	global	read_adc@channel
   335  007A                     read_adc@channel:	; 1 bytes @ 0xA
   336                           	global	utoa@base
   337  007A                     utoa@base:	; 2 bytes @ 0xA
   338  007A                     	ds	1
   339                           	global	read_adc@adc_value
   340  007B                     read_adc@adc_value:	; 2 bytes @ 0xB
   341  007B                     	ds	1
   342                           	global	??_utoa
   343  007C                     ??_utoa:	; 0 bytes @ 0xC
   344                           	global	??___lwtoft
   345  007C                     ??___lwtoft:	; 0 bytes @ 0xC
   346  007C                     	ds	1
   347                           	global	??_itoa
   348  007D                     ??_itoa:	; 0 bytes @ 0xD
   349  007D                     	ds	1
   350                           psect	cstackBANK0,class=BANK0,space=1
   351                           global __pcstackBANK0
   352  0020                     __pcstackBANK0:
   353                           	global	??___fttol
   354  0020                     ??___fttol:	; 0 bytes @ 0x0
   355                           	global	utoa@v
   356  0020                     utoa@v:	; 2 bytes @ 0x0
   357  0020                     	ds	2
   358                           	global	utoa@c
   359  0022                     utoa@c:	; 1 bytes @ 0x2
   360  0022                     	ds	1
   361                           	global	utoa@buf
   362  0023                     utoa@buf:	; 1 bytes @ 0x3
   363  0023                     	ds	1
   364                           	global	?_itoa
   365  0024                     ?_itoa:	; 1 bytes @ 0x4
   366                           	global	___fttol@sign1
   367  0024                     ___fttol@sign1:	; 1 bytes @ 0x4
   368                           	global	itoa@val
   369  0024                     itoa@val:	; 2 bytes @ 0x4
   370  0024                     	ds	1
   371                           	global	___fttol@lval
   372  0025                     ___fttol@lval:	; 4 bytes @ 0x5
   373  0025                     	ds	1
   374                           	global	itoa@base
   375  0026                     itoa@base:	; 2 bytes @ 0x6
   376  0026                     	ds	2
   377                           	global	itoa@cp
   378  0028                     itoa@cp:	; 1 bytes @ 0x8
   379  0028                     	ds	1
   380                           	global	itoa@buf
   381  0029                     itoa@buf:	; 1 bytes @ 0x9
   382                           	global	___fttol@exp1
   383  0029                     ___fttol@exp1:	; 1 bytes @ 0x9
   384  0029                     	ds	1
   385                           	global	?___lwtoft
   386  002A                     ?___lwtoft:	; 3 bytes @ 0xA
   387                           	global	___lwtoft@c
   388  002A                     ___lwtoft@c:	; 2 bytes @ 0xA
   389  002A                     	ds	3
   390                           	global	?___ftmul
   391  002D                     ?___ftmul:	; 3 bytes @ 0xD
   392                           	global	___ftmul@f1
   393  002D                     ___ftmul@f1:	; 3 bytes @ 0xD
   394  002D                     	ds	3
   395                           	global	___ftmul@f2
   396  0030                     ___ftmul@f2:	; 3 bytes @ 0x10
   397  0030                     	ds	3
   398                           	global	??___ftmul
   399  0033                     ??___ftmul:	; 0 bytes @ 0x13
   400  0033                     	ds	4
   401                           	global	___ftmul@exp
   402  0037                     ___ftmul@exp:	; 1 bytes @ 0x17
   403  0037                     	ds	1
   404                           	global	___ftmul@f3_as_product
   405  0038                     ___ftmul@f3_as_product:	; 3 bytes @ 0x18
   406  0038                     	ds	3
   407                           	global	___ftmul@cntr
   408  003B                     ___ftmul@cntr:	; 1 bytes @ 0x1B
   409  003B                     	ds	1
   410                           	global	___ftmul@sign
   411  003C                     ___ftmul@sign:	; 1 bytes @ 0x1C
   412  003C                     	ds	1
   413                           	global	??_main
   414  003D                     ??_main:	; 0 bytes @ 0x1D
   415  003D                     	ds	1
   416 ;;Data sizes: Strings 30, constant 0, data 0, bss 14, persistent 0 stack 0
   417 ;;Auto spaces:   Size  Autos    Used
   418 ;; COMMON          14     14      14
   419 ;; BANK0           80     30      45
   420 ;; BANK1           80      0       0
   421 ;; BANK3           96      0       0
   422 ;; BANK2           96      0       0
   423                           
   424 ;;
   425 ;; Pointer list with targets:
   426                           
   427 ;; ?___ftpack	float  size(1) Largest target is 0
   428 ;;
   429 ;; ?___lwmod	unsigned int  size(1) Largest target is 0
   430 ;;
   431 ;; ?___lwdiv	unsigned int  size(1) Largest target is 0
   432 ;;
   433 ;; ?_utoa	PTR unsigned char  size(1) Largest target is 4
   434 ;;		 -> buf(BANK0[4]), 
   435 ;;
   436 ;; ?_read_adc	unsigned int  size(1) Largest target is 0
   437 ;;
   438 ;; ?___fttol	long  size(1) Largest target is 0
   439 ;;
   440 ;; ?___ftmul	float  size(1) Largest target is 0
   441 ;;
   442 ;; ?___lwtoft	float  size(1) Largest target is 0
   443 ;;
   444 ;; ?_itoa	PTR unsigned char  size(1) Largest target is 4
   445 ;;		 -> buf(BANK0[4]), 
   446 ;;
   447 ;; utoa@buf	PTR unsigned char  size(1) Largest target is 4
   448 ;;		 -> buf(BANK0[4]), 
   449 ;;
   450 ;; sp__utoa	PTR unsigned char  size(1) Largest target is 4
   451 ;;		 -> buf(BANK0[4]), 
   452 ;;
   453 ;; itoa@buf	PTR unsigned char  size(1) Largest target is 4
   454 ;;		 -> buf(BANK0[4]), 
   455 ;;
   456 ;; itoa@cp	PTR unsigned char  size(1) Largest target is 4
   457 ;;		 -> buf(BANK0[4]), 
   458 ;;
   459 ;; sp__itoa	PTR unsigned char  size(1) Largest target is 4
   460 ;;		 -> buf(BANK0[4]), 
   461 ;;
   462 ;; lcd_puts@s	PTR const unsigned char  size(2) Largest target is 15
   463 ;;		 -> STR_3(CODE[15]), STR_2(CODE[3]), buf(BANK0[4]), STR_1(CODE[12]), 
   464 ;;
   465                           
   466                           
   467 ;;
   468 ;; Critical Paths under _main in COMMON
   469 ;;
   470 ;;   _main->_itoa
   471 ;;   _lcd_goto->_send
   472 ;;   _lcd_puts->_send
   473 ;;   _lcd_init->_send
   474 ;;   _itoa->_utoa
   475 ;;   _send->_LCD_STROBE
   476 ;;   ___lwtoft->___fttol
   477 ;;   ___ftmul->___lwtoft
   478 ;;   _utoa->___lwdiv
   479 ;;   _read_adc->_DelayMs
   480 ;;   ___fttol->___ftpack
   481 ;;
   482 ;; Critical Paths under _main in BANK0
   483 ;;
   484 ;;   _main->___ftmul
   485 ;;   _itoa->_utoa
   486 ;;   ___lwtoft->___fttol
   487 ;;   ___ftmul->___lwtoft
   488 ;;
   489 ;; Critical Paths under _main in BANK1
   490 ;;
   491 ;;   None.
   492 ;;
   493 ;; Critical Paths under _main in BANK3
   494 ;;
   495 ;;   None.
   496 ;;
   497 ;; Critical Paths under _main in BANK2
   498 ;;
   499 ;;   None.
   500                           
   501 ;;
   502 ;;Main: autosize = 0, tempsize = 1, incstack = 0, save=0
   503 ;;
   504                           
   505 ;;
   506 ;;Call Graph Tables:
   507 ;;
   508 ;; ---------------------------------------------------------------------------------
   509 ;; (Depth) Function   	        Calls       Base Space   Used Autos Params    Refs
   510 ;; ---------------------------------------------------------------------------------
   511 ;; (0) _main                                                 1     1      0    2662
   512 ;;                                             29 BANK0      1     1      0
   513 ;;                           _init_adc
   514 ;;                           _lcd_init
   515 ;;                           _lcd_goto
   516 ;;                           _lcd_puts
   517 ;;                           _read_adc
   518 ;;                               _itoa
   519 ;;                           ___lwtoft
   520 ;;                            ___ftmul
   521 ;;                            ___fttol
   522 ;;                            _DelayMs
   523 ;; ---------------------------------------------------------------------------------
   524 ;; (1) _lcd_goto                                             2     1      1     291
   525 ;;                                              6 COMMON     2     1      1
   526 ;;                               _send
   527 ;; ---------------------------------------------------------------------------------
   528 ;; (1) _lcd_puts                                             2     0      2     204
   529 ;;                                              6 COMMON     2     0      2
   530 ;;                               _send
   531 ;; ---------------------------------------------------------------------------------
   532 ;; (1) _lcd_init                                             3     3      0     159
   533 ;;                                              6 COMMON     3     3      0
   534 ;;                         _LCD_STROBE
   535 ;;                               _send
   536 ;; ---------------------------------------------------------------------------------
   537 ;; (1) _itoa                                                 7     3      4     785
   538 ;;                                             13 COMMON     1     1      0
   539 ;;                                              4 BANK0      6     2      4
   540 ;;                               _utoa
   541 ;; ---------------------------------------------------------------------------------
   542 ;; (2) _send                                                 4     4      0     159
   543 ;;                                              2 COMMON     4     4      0
   544 ;;                         _LCD_STROBE
   545 ;; ---------------------------------------------------------------------------------
   546 ;; (1) ___lwtoft                                             4     1      3     231
   547 ;;                                             12 COMMON     1     1      0
   548 ;;                                             10 BANK0      3     0      3
   549 ;;                           ___ftpack
   550 ;;                            ___fttol (ARG)
   551 ;; ---------------------------------------------------------------------------------
   552 ;; (1) ___ftmul                                             16    10      6     535
   553 ;;                                             13 BANK0     16    10      6
   554 ;;                           ___ftpack
   555 ;;                           ___lwtoft (ARG)
   556 ;;                            ___fttol (ARG)
   557 ;; ---------------------------------------------------------------------------------
   558 ;; (2) _utoa                                                 9     5      4     622
   559 ;;                                              8 COMMON     5     1      4
   560 ;;                                              0 BANK0      4     4      0
   561 ;;                            ___lwdiv
   562 ;;                            ___lwmod
   563 ;; ---------------------------------------------------------------------------------
   564 ;; (1) _read_adc                                             9     7      2     137
   565 ;;                                              4 COMMON     9     7      2
   566 ;;                            _DelayMs
   567 ;; ---------------------------------------------------------------------------------
   568 ;; (3) _LCD_STROBE                                           2     2      0       0
   569 ;;                                              0 COMMON     2     2      0
   570 ;; ---------------------------------------------------------------------------------
   571 ;; (1) ___fttol                                             14    10      4     252
   572 ;;                                              8 COMMON     4     0      4
   573 ;;                                              0 BANK0     10    10      0
   574 ;;                           ___ftpack (ARG)
   575 ;; ---------------------------------------------------------------------------------
   576 ;; (2) ___ftpack                                             8     3      5     209
   577 ;;                                              0 COMMON     8     3      5
   578 ;; ---------------------------------------------------------------------------------
   579 ;; (3) ___lwmod                                              6     2      4     159
   580 ;;                                              0 COMMON     6     2      4
   581 ;; ---------------------------------------------------------------------------------
   582 ;; (3) ___lwdiv                                              8     4      4     162
   583 ;;                                              0 COMMON     8     4      4
   584 ;; ---------------------------------------------------------------------------------
   585 ;; (1) _init_adc                                             0     0      0       0
   586 ;; ---------------------------------------------------------------------------------
   587 ;; (1) _DelayMs                                              4     4      0      68
   588 ;;                                              0 COMMON     4     4      0
   589 ;; ---------------------------------------------------------------------------------
   590 ;; Estimated maximum stack depth 3
   591 ;; ---------------------------------------------------------------------------------
   592                           
   593 ;; Call Graph Graphs:
   594                           
   595 ;; _main (ROOT)
   596 ;;   _init_adc
   597 ;;   _lcd_init
   598 ;;     _LCD_STROBE
   599 ;;     _send
   600 ;;       _LCD_STROBE
   601 ;;   _lcd_goto
   602 ;;     _send
   603 ;;       _LCD_STROBE
   604 ;;   _lcd_puts
   605 ;;     _send
   606 ;;       _LCD_STROBE
   607 ;;   _read_adc
   608 ;;     _DelayMs
   609 ;;   _itoa
   610 ;;     _utoa
   611 ;;       ___lwdiv
   612 ;;       ___lwmod
   613 ;;   ___lwtoft
   614 ;;     ___ftpack
   615 ;;     ___fttol (ARG)
   616 ;;       ___ftpack (ARG)
   617 ;;   ___ftmul
   618 ;;     ___ftpack
   619 ;;     ___lwtoft (ARG)
   620 ;;       ___ftpack
   621 ;;       ___fttol (ARG)
   622 ;;         ___ftpack (ARG)
   623 ;;     ___fttol (ARG)
   624 ;;       ___ftpack (ARG)
   625 ;;   ___fttol
   626 ;;     ___ftpack (ARG)
   627 ;;   _DelayMs
   628 ;;
   629                           
   630 ;; Address spaces:
   631                           
   632 ;;Name               Size   Autos  Total    Cost      Usage
   633 ;;BITCOMMON            E      0       0       0        0.0%
   634 ;;EEDATA             100      0       0       0        0.0%
   635 ;;NULL                 0      0       0       0        0.0%
   636 ;;CODE                 0      0       0       0        0.0%
   637 ;;COMMON               E      E       E       1      100.0%
   638 ;;BITSFR0              0      0       0       1        0.0%
   639 ;;SFR0                 0      0       0       1        0.0%
   640 ;;BITSFR1              0      0       0       2        0.0%
   641 ;;SFR1                 0      0       0       2        0.0%
   642 ;;STACK                0      0       3       2        0.0%
   643 ;;ABS                  0      0      3B       3        0.0%
   644 ;;BITBANK0            50      0       1       4        1.3%
   645 ;;BITSFR3              0      0       0       4        0.0%
   646 ;;SFR3                 0      0       0       4        0.0%
   647 ;;BANK0               50     1E      2D       5       56.3%
   648 ;;BITSFR2              0      0       0       5        0.0%
   649 ;;SFR2                 0      0       0       5        0.0%
   650 ;;BITBANK1            50      0       0       6        0.0%
   651 ;;BANK1               50      0       0       7        0.0%
   652 ;;BITBANK3            60      0       0       8        0.0%
   653 ;;BANK3               60      0       0       9        0.0%
   654 ;;BITBANK2            60      0       0      10        0.0%
   655 ;;BANK2               60      0       0      11        0.0%
   656 ;;DATA                 0      0      3E      12        0.0%
   657                           
   658                           	global	_main
   659                           psect	maintext,global,class=CODE,delta=2
   660                           global __pmaintext
   661  064B                     __pmaintext:
   662                           
   663 ;; *************** function _main *****************
   664 ;; Defined at:
   665 ;;		line 14 in file "F:\Prolific\pic_s\pic_pgm\12.2 adc lm35(temp)_10bit - Copy\program\main.c"
   666 ;; Parameters:    Size  Location     Type
   667 ;;		None
   668 ;; Auto vars:     Size  Location     Type
   669 ;;		None
   670 ;; Return value:  Size  Location     Type
   671 ;;		None               void
   672 ;; Registers used:
   673 ;;		wreg, fsr0l, fsr0h, status,2, status,0, btemp+1, pclath, cstack
   674 ;; Tracked objects:
   675 ;;		On entry : 17F/0
   676 ;;		On exit  : 0/0
   677 ;;		Unchanged: 0/0
   678 ;; Data sizes:     COMMON   BANK0   BANK1   BANK3   BANK2
   679 ;;      Params:         0       0       0       0       0
   680 ;;      Locals:         0       0       0       0       0
   681 ;;      Temps:          0       1       0       0       0
   682 ;;      Totals:         0       1       0       0       0
   683 ;;Total ram usage:        1 bytes
   684 ;; Hardware stack levels required when called:    3
   685 ;; This function calls:
   686 ;;		_init_adc
   687 ;;		_lcd_init
   688 ;;		_lcd_goto
   689 ;;		_lcd_puts
   690 ;;		_read_adc
   691 ;;		_itoa
   692 ;;		___lwtoft
   693 ;;		___ftmul
   694 ;;		___fttol
   695 ;;		_DelayMs
   696 ;; This function is called by:
   697 ;;		Startup code after reset
   698 ;; This function uses a non-reentrant model
   699 ;;
   700                           psect	maintext
   701                           	file	"F:\Prolific\pic_s\pic_pgm\12.2 adc lm35(temp)_10bit - Copy\program\main.c"
   702                           	line	14
   703                           	global	__size_of_main
   704  00C7                     	__size_of_main	equ	__end_of_main-_main
   705                           	
   706  064B                     _main:	
   707                           	opt	stack 5
   708                           ; Regs used in _main: [wreg-fsr0h+status,2+status,0+btemp+1+pclath+cstack]
   709                           	line	15
   710                           	
   711  064B                     l4921:	
   712                           ;main.c: 15: init_adc();
   713  064B  120A  118A  2234   	fcall	_init_adc
              120A  118A         
   714                           	line	16
   715                           ;main.c: 16: lcd_init();
   716  0650  120A  118A  2458   	fcall	_lcd_init
              120A  118A         
   717                           	line	18
   718                           	
   719  0655                     l4923:	
   720                           ;main.c: 18: lcd_goto(1,0);
   721  0655  01F6               	clrf	(?_lcd_goto)
   722  0656  3001               	movlw	(01h)
   723  0657  120A  118A  23C1   	fcall	_lcd_goto
              120A  118A         
   724                           	line	19
   725                           	
   726  065C                     l4925:	
   727                           ;main.c: 19: lcd_puts("TEMPERATURE");
   728  065C  3010               	movlw	low((STR_1-__stringbase))
   729  065D  00F6               	movwf	(?_lcd_puts)
   730  065E  3080               	movlw	80h
   731  065F  00F7               	movwf	(?_lcd_puts+1)
   732  0660  120A  118A  229E   	fcall	_lcd_puts
              120A  118A         
   733  0665  2E66               	goto	l4927
   734                           	line	20
   735                           ;main.c: 20: while(1)
   736                           	
   737  0666                     l1464:	
   738                           	line	22
   739                           	
   740  0666                     l4927:	
   741                           ;main.c: 21: {
   742                           ;main.c: 22: adc_val=read_adc(0);
   743  0666  3000               	movlw	(0)
   744  0667  120A  118A  22F9   	fcall	_read_adc
              120A  118A         
   745  066C  0875               	movf	(1+(?_read_adc)),w
   746  066D  1283               	bcf	status, 5	;RP0=0, select bank0
   747  066E  1303               	bcf	status, 6	;RP1=0, select bank0
   748  066F  01CB               	clrf	(_adc_val+1)
   749  0670  07CB               	addwf	(_adc_val+1)
   750  0671  0874               	movf	(0+(?_read_adc)),w
   751  0672  01CA               	clrf	(_adc_val)
   752  0673  07CA               	addwf	(_adc_val)
   753                           
   754                           	line	23
   755                           	
   756  0674                     l4929:	
   757                           ;main.c: 23: itoa(buf,adc_val,10);
   758  0674  084B               	movf	(_adc_val+1),w
   759  0675  01A5               	clrf	(?_itoa+1)
   760  0676  07A5               	addwf	(?_itoa+1)
   761  0677  084A               	movf	(_adc_val),w
   762  0678  01A4               	clrf	(?_itoa)
   763  0679  07A4               	addwf	(?_itoa)
   764                           
   765  067A  300A               	movlw	low(0Ah)
   766  067B  00A6               	movwf	0+(?_itoa)+02h
   767  067C  3000               	movlw	high(0Ah)
   768  067D  00A7               	movwf	(0+(?_itoa)+02h)+1
   769  067E  3046               	movlw	(_buf)&0ffh
   770  067F  120A  118A  22C9   	fcall	_itoa
              120A  118A         
   771                           	line	24
   772                           	
   773  0684                     l4931:	
   774                           ;main.c: 24: lcd_goto(2,6);
   775  0684  3006               	movlw	(06h)
   776  0685  1283               	bcf	status, 5	;RP0=0, select bank0
   777  0686  1303               	bcf	status, 6	;RP1=0, select bank0
   778  0687  00BD               	movwf	(??_main+0)+0
   779  0688  083D               	movf	(??_main+0)+0,w
   780  0689  00F6               	movwf	(?_lcd_goto)
   781  068A  3002               	movlw	(02h)
   782  068B  120A  118A  23C1   	fcall	_lcd_goto
              120A  118A         
   783                           	line	25
   784                           	
   785  0690                     l4933:	
   786                           ;main.c: 25: lcd_puts(buf);
   787  0690  3046               	movlw	(_buf&0ffh)
   788  0691  00F6               	movwf	(?_lcd_puts)
   789  0692  3000               	movlw	(0x0/2)
   790  0693  00F7               	movwf	(?_lcd_puts+1)
   791  0694  120A  118A  229E   	fcall	_lcd_puts
              120A  118A         
   792                           	line	26
   793                           	
   794  0699                     l4935:	
   795                           ;main.c: 26: k=(int)(adc_val * 0.0048828125 * 100);
   796  0699  1283               	bcf	status, 5	;RP0=0, select bank0
   797  069A  1303               	bcf	status, 6	;RP1=0, select bank0
   798  069B  084B               	movf	(_adc_val+1),w
   799  069C  01AB               	clrf	(?___lwtoft+1)
   800  069D  07AB               	addwf	(?___lwtoft+1)
   801  069E  084A               	movf	(_adc_val),w
   802  069F  01AA               	clrf	(?___lwtoft)
   803  06A0  07AA               	addwf	(?___lwtoft)
   804                           
   805  06A1  120A  118A  2262   	fcall	___lwtoft
              120A  118A         
   806  06A6  1283               	bcf	status, 5	;RP0=0, select bank0
   807  06A7  1303               	bcf	status, 6	;RP1=0, select bank0
   808  06A8  082A               	movf	(0+(?___lwtoft)),w
   809  06A9  00B0               	movwf	0+(?___ftmul)+03h
   810  06AA  082B               	movf	(1+(?___lwtoft)),w
   811  06AB  00B1               	movwf	1+(?___ftmul)+03h
   812  06AC  082C               	movf	(2+(?___lwtoft)),w
   813  06AD  00B2               	movwf	2+(?___ftmul)+03h
   814  06AE  3000               	movlw	0x0
   815  06AF  00AD               	movwf	(?___ftmul)
   816  06B0  30FA               	movlw	0xfa
   817  06B1  00AE               	movwf	(?___ftmul+1)
   818  06B2  303E               	movlw	0x3e
   819  06B3  00AF               	movwf	(?___ftmul+2)
   820  06B4  120A  118A  2712   	fcall	___ftmul
              120A  118A         
   821  06B9  1283               	bcf	status, 5	;RP0=0, select bank0
   822  06BA  1303               	bcf	status, 6	;RP1=0, select bank0
   823  06BB  082D               	movf	(0+(?___ftmul)),w
   824  06BC  00F8               	movwf	(?___fttol)
   825  06BD  082E               	movf	(1+(?___ftmul)),w
   826  06BE  00F9               	movwf	(?___fttol+1)
   827  06BF  082F               	movf	(2+(?___ftmul)),w
   828  06C0  00FA               	movwf	(?___fttol+2)
   829  06C1  120A  118A  25A5   	fcall	___fttol
              120A  118A         
   830  06C6  0879               	movf	1+(((0+(?___fttol)))),w
   831  06C7  1283               	bcf	status, 5	;RP0=0, select bank0
   832  06C8  1303               	bcf	status, 6	;RP1=0, select bank0
   833  06C9  01C3               	clrf	(_k+1)
   834  06CA  07C3               	addwf	(_k+1)
   835  06CB  0878               	movf	0+(((0+(?___fttol)))),w
   836  06CC  01C2               	clrf	(_k)
   837  06CD  07C2               	addwf	(_k)
   838                           
   839                           	line	27
   840                           	
   841  06CE                     l4937:	
   842                           ;main.c: 27: itoa(buf,k,10);
   843  06CE  0843               	movf	(_k+1),w
   844  06CF  01A5               	clrf	(?_itoa+1)
   845  06D0  07A5               	addwf	(?_itoa+1)
   846  06D1  0842               	movf	(_k),w
   847  06D2  01A4               	clrf	(?_itoa)
   848  06D3  07A4               	addwf	(?_itoa)
   849                           
   850  06D4  300A               	movlw	low(0Ah)
   851  06D5  00A6               	movwf	0+(?_itoa)+02h
   852  06D6  3000               	movlw	high(0Ah)
   853  06D7  00A7               	movwf	(0+(?_itoa)+02h)+1
   854  06D8  3046               	movlw	(_buf)&0ffh
   855  06D9  120A  118A  22C9   	fcall	_itoa
              120A  118A         
   856                           	line	28
   857                           	
   858  06DE                     l4939:	
   859                           ;main.c: 28: lcd_goto(2,0);
   860  06DE  01F6               	clrf	(?_lcd_goto)
   861  06DF  3002               	movlw	(02h)
   862  06E0  120A  118A  23C1   	fcall	_lcd_goto
              120A  118A         
   863                           	line	29
   864                           	
   865  06E5                     l4941:	
   866                           ;main.c: 29: lcd_puts(buf);
   867  06E5  3046               	movlw	(_buf&0ffh)
   868  06E6  00F6               	movwf	(?_lcd_puts)
   869  06E7  3000               	movlw	(0x0/2)
   870  06E8  00F7               	movwf	(?_lcd_puts+1)
   871  06E9  120A  118A  229E   	fcall	_lcd_puts
              120A  118A         
   872                           	line	30
   873                           	
   874  06EE                     l4943:	
   875                           ;main.c: 30: lcd_puts(" c");
   876  06EE  301C               	movlw	low((STR_2-__stringbase))
   877  06EF  00F6               	movwf	(?_lcd_puts)
   878  06F0  3080               	movlw	80h
   879  06F1  00F7               	movwf	(?_lcd_puts+1)
   880  06F2  120A  118A  229E   	fcall	_lcd_puts
              120A  118A         
   881                           	line	31
   882                           	
   883  06F7                     l4945:	
   884                           ;main.c: 31: DelayMs(200);
   885  06F7  30C8               	movlw	(0C8h)
   886  06F8  120A  118A  227D   	fcall	_DelayMs
              120A  118A         
   887                           	line	32
   888                           ;main.c: 32: lcd_goto(2,0);
   889  06FD  01F6               	clrf	(?_lcd_goto)
   890  06FE  3002               	movlw	(02h)
   891  06FF  120A  118A  23C1   	fcall	_lcd_goto
              120A  118A         
   892                           	line	33
   893                           	
   894  0704                     l4947:	
   895                           ;main.c: 33: lcd_puts("              ");
   896  0704  3001               	movlw	low((STR_3-__stringbase))
   897  0705  00F6               	movwf	(?_lcd_puts)
   898  0706  3080               	movlw	80h
   899  0707  00F7               	movwf	(?_lcd_puts+1)
   900  0708  120A  118A  229E   	fcall	_lcd_puts
              120A  118A         
   901  070D  2E66               	goto	l4927
   902                           	line	34
   903                           	
   904  070E                     l1465:	
   905                           	line	20
   906  070E  2E66               	goto	l4927
   907                           	
   908  070F                     l1466:	
   909                           	line	35
   910                           	
   911  070F                     l1467:	
   912                           	global	start
   913  070F  120A  118A  2800   	ljmp	start
   914                           	opt stack 0
   915                           GLOBAL	__end_of_main
   916  0712                     	__end_of_main:
   917 ;; =============== function _main ends ============
   918                           
   919                           	signat	_main,88
   920                           	global	_lcd_goto
   921                           psect	text419,local,class=CODE,delta=2
   922                           global __ptext419
   923  03C1                     __ptext419:
   924                           
   925 ;; *************** function _lcd_goto *****************
   926 ;; Defined at:
   927 ;;		line 77 in file "F:\Prolific\pic_s\pic_pgm\12.2 adc lm35(temp)_10bit - Copy\program\lcd.c"
   928 ;; Parameters:    Size  Location     Type
   929 ;;  line            1    wreg     unsigned char 
   930 ;;  pos             1    6[COMMON] unsigned char 
   931 ;; Auto vars:     Size  Location     Type
   932 ;;  line            1    7[COMMON] unsigned char 
   933 ;; Return value:  Size  Location     Type
   934 ;;		None               void
   935 ;; Registers used:
   936 ;;		wreg, fsr0l, fsr0h, status,2, status,0, pclath, cstack
   937 ;; Tracked objects:
   938 ;;		On entry : 0/0
   939 ;;		On exit  : 0/0
   940 ;;		Unchanged: 0/0
   941 ;; Data sizes:     COMMON   BANK0   BANK1   BANK3   BANK2
   942 ;;      Params:         1       0       0       0       0
   943 ;;      Locals:         1       0       0       0       0
   944 ;;      Temps:          0       0       0       0       0
   945 ;;      Totals:         2       0       0       0       0
   946 ;;Total ram usage:        2 bytes
   947 ;; Hardware stack levels used:    1
   948 ;; Hardware stack levels required when called:    2
   949 ;; This function calls:
   950 ;;		_send
   951 ;; This function is called by:
   952 ;;		_main
   953 ;; This function uses a non-reentrant model
   954 ;;
   955                           psect	text419
   956                           	file	"F:\Prolific\pic_s\pic_pgm\12.2 adc lm35(temp)_10bit - Copy\program\lcd.c"
   957                           	line	77
   958                           	global	__size_of_lcd_goto
   959  0049                     	__size_of_lcd_goto	equ	__end_of_lcd_goto-_lcd_goto
   960                           	
   961  03C1                     _lcd_goto:	
   962                           	opt	stack 5
   963                           ; Regs used in _lcd_goto: [wreg-fsr0h+status,2+status,0+pclath+cstack]
   964                           ;lcd_goto@line stored from wreg
   965  03C1  00F7               	movwf	(lcd_goto@line)
   966                           	line	78
   967                           	
   968  03C2                     l4905:	
   969                           ;lcd.c: 78: switch(line)
   970  03C2  2BFB               	goto	l4919
   971                           	line	80
   972                           ;lcd.c: 79: {
   973                           ;lcd.c: 80: case 1:
   974                           	
   975  03C3                     l735:	
   976                           	line	81
   977                           ;lcd.c: 81: mode=0;
   978  03C3  1283               	bcf	status, 5	;RP0=0, select bank0
   979  03C4  1303               	bcf	status, 6	;RP1=0, select bank0
   980  03C5  104C               	bcf	(_mode/8),(_mode)&7
   981                           	line	82
   982                           	
   983  03C6                     l4907:	
   984                           ;lcd.c: 82: send(0X80+pos);
   985  03C6  0876               	movf	(lcd_goto@pos),w
   986  03C7  3E80               	addlw	080h
   987  03C8  120A  118A  237A   	fcall	_send
              120A  118A         
   988                           	line	83
   989                           ;lcd.c: 83: break;
   990  03CD  2C09               	goto	l741
   991                           	line	85
   992                           ;lcd.c: 85: case 2:
   993                           	
   994  03CE                     l737:	
   995                           	line	86
   996                           ;lcd.c: 86: mode=0;
   997  03CE  1283               	bcf	status, 5	;RP0=0, select bank0
   998  03CF  1303               	bcf	status, 6	;RP1=0, select bank0
   999  03D0  104C               	bcf	(_mode/8),(_mode)&7
  1000                           	line	87
  1001                           	
  1002  03D1                     l4909:	
  1003                           ;lcd.c: 87: send(0XC0+pos);
  1004  03D1  0876               	movf	(lcd_goto@pos),w
  1005  03D2  3EC0               	addlw	0C0h
  1006  03D3  120A  118A  237A   	fcall	_send
              120A  118A         
  1007                           	line	88
  1008                           ;lcd.c: 88: break;
  1009  03D8  2C09               	goto	l741
  1010                           	line	90
  1011                           ;lcd.c: 90: case 3:
  1012                           	
  1013  03D9                     l738:	
  1014                           	line	91
  1015                           ;lcd.c: 91: mode=0;
  1016  03D9  1283               	bcf	status, 5	;RP0=0, select bank0
  1017  03DA  1303               	bcf	status, 6	;RP1=0, select bank0
  1018  03DB  104C               	bcf	(_mode/8),(_mode)&7
  1019                           	line	92
  1020                           	
  1021  03DC                     l4911:	
  1022                           ;lcd.c: 92: send(0X94+pos);
  1023  03DC  0876               	movf	(lcd_goto@pos),w
  1024  03DD  3E94               	addlw	094h
  1025  03DE  120A  118A  237A   	fcall	_send
              120A  118A         
  1026                           	line	93
  1027                           ;lcd.c: 93: break;
  1028  03E3  2C09               	goto	l741
  1029                           	line	95
  1030                           ;lcd.c: 95: case 4:
  1031                           	
  1032  03E4                     l739:	
  1033                           	line	96
  1034                           ;lcd.c: 96: mode=0;
  1035  03E4  1283               	bcf	status, 5	;RP0=0, select bank0
  1036  03E5  1303               	bcf	status, 6	;RP1=0, select bank0
  1037  03E6  104C               	bcf	(_mode/8),(_mode)&7
  1038                           	line	97
  1039                           	
  1040  03E7                     l4913:	
  1041                           ;lcd.c: 97: send(0XD4+pos);
  1042  03E7  0876               	movf	(lcd_goto@pos),w
  1043  03E8  3ED4               	addlw	0D4h
  1044  03E9  120A  118A  237A   	fcall	_send
              120A  118A         
  1045                           	line	98
  1046                           ;lcd.c: 98: break;
  1047  03EE  2C09               	goto	l741
  1048                           	line	100
  1049                           ;lcd.c: 100: default:
  1050                           	
  1051  03EF                     l740:	
  1052                           	line	101
  1053                           ;lcd.c: 101: mode=0;
  1054  03EF  1283               	bcf	status, 5	;RP0=0, select bank0
  1055  03F0  1303               	bcf	status, 6	;RP1=0, select bank0
  1056  03F1  104C               	bcf	(_mode/8),(_mode)&7
  1057                           	line	102
  1058                           	
  1059  03F2                     l4915:	
  1060                           ;lcd.c: 102: send(0XD4+pos);
  1061  03F2  0876               	movf	(lcd_goto@pos),w
  1062  03F3  3ED4               	addlw	0D4h
  1063  03F4  120A  118A  237A   	fcall	_send
              120A  118A         
  1064                           	line	103
  1065                           ;lcd.c: 103: break;
  1066  03F9  2C09               	goto	l741
  1067                           	line	104
  1068                           	
  1069  03FA                     l4917:	
  1070                           ;lcd.c: 104: }
  1071  03FA  2C09               	goto	l741
  1072                           	line	78
  1073                           	
  1074  03FB                     l734:	
  1075                           	
  1076  03FB                     l4919:	
  1077  03FB  0877               	movf	(lcd_goto@line),w
  1078                           	; Switch size 1, requested type "space"
  1079                           ; Number of cases is 4, Range of values is 1 to 4
  1080                           ; switch strategies available:
  1081                           ; Name         Instructions Cycles
  1082                           ; simple_byte           13     7 (average)
  1083                           ; direct_byte           23    11 (fixed)
  1084                           ; jumptable            263     9 (fixed)
  1085                           ;	Chosen strategy is simple_byte
  1086                           
  1087                           	opt asmopt_off
  1088  03FC  3A01               	xorlw	1^0	; case 1
  1089  03FD  1903               	skipnz
  1090  03FE  2BC3               	goto	l735
  1091  03FF  3A03               	xorlw	2^1	; case 2
  1092  0400  1903               	skipnz
  1093  0401  2BCE               	goto	l737
  1094  0402  3A01               	xorlw	3^2	; case 3
  1095  0403  1903               	skipnz
  1096  0404  2BD9               	goto	l738
  1097  0405  3A07               	xorlw	4^3	; case 4
  1098  0406  1903               	skipnz
  1099  0407  2BE4               	goto	l739
  1100  0408  2BEF               	goto	l740
  1101                           	opt asmopt_on
  1102                           
  1103                           	line	104
  1104                           	
  1105  0409                     l736:	
  1106                           	line	105
  1107                           	
  1108  0409                     l741:	
  1109  0409  0008               	return
  1110                           	opt stack 0
  1111                           GLOBAL	__end_of_lcd_goto
  1112  040A                     	__end_of_lcd_goto:
  1113 ;; =============== function _lcd_goto ends ============
  1114                           
  1115                           	signat	_lcd_goto,8312
  1116                           	global	_lcd_puts
  1117                           psect	text420,local,class=CODE,delta=2
  1118                           global __ptext420
  1119  029E                     __ptext420:
  1120                           
  1121 ;; *************** function _lcd_puts *****************
  1122 ;; Defined at:
  1123 ;;		line 60 in file "F:\Prolific\pic_s\pic_pgm\12.2 adc lm35(temp)_10bit - Copy\program\lcd.c"
  1124 ;; Parameters:    Size  Location     Type
  1125 ;;  s               2    6[COMMON] PTR const unsigned char 
  1126 ;;		 -> STR_3(15), STR_2(3), buf(4), STR_1(12), 
  1127 ;; Auto vars:     Size  Location     Type
  1128 ;;		None
  1129 ;; Return value:  Size  Location     Type
  1130 ;;		None               void
  1131 ;; Registers used:
  1132 ;;		wreg, fsr0l, fsr0h, status,2, status,0, btemp+1, pclath, cstack
  1133 ;; Tracked objects:
  1134 ;;		On entry : 0/0
  1135 ;;		On exit  : 0/0
  1136 ;;		Unchanged: 0/0
  1137 ;; Data sizes:     COMMON   BANK0   BANK1   BANK3   BANK2
  1138 ;;      Params:         2       0       0       0       0
  1139 ;;      Locals:         0       0       0       0       0
  1140 ;;      Temps:          0       0       0       0       0
  1141 ;;      Totals:         2       0       0       0       0
  1142 ;;Total ram usage:        2 bytes
  1143 ;; Hardware stack levels used:    1
  1144 ;; Hardware stack levels required when called:    2
  1145 ;; This function calls:
  1146 ;;		_send
  1147 ;; This function is called by:
  1148 ;;		_main
  1149 ;; This function uses a non-reentrant model
  1150 ;;
  1151                           psect	text420
  1152                           	file	"F:\Prolific\pic_s\pic_pgm\12.2 adc lm35(temp)_10bit - Copy\program\lcd.c"
  1153                           	line	60
  1154                           	global	__size_of_lcd_puts
  1155  002B                     	__size_of_lcd_puts	equ	__end_of_lcd_puts-_lcd_puts
  1156                           	
  1157  029E                     _lcd_puts:	
  1158                           	opt	stack 5
  1159                           ; Regs used in _lcd_puts: [wreg-fsr0h+status,2+status,0+btemp+1+pclath+cstack]
  1160                           	line	61
  1161                           	
  1162  029E                     l4897:	
  1163                           ;lcd.c: 61: mode = 1;
  1164  029E  1283               	bcf	status, 5	;RP0=0, select bank0
  1165  029F  1303               	bcf	status, 6	;RP1=0, select bank0
  1166  02A0  144C               	bsf	(_mode/8),(_mode)&7
  1167                           	line	62
  1168                           ;lcd.c: 62: while(*s)
  1169  02A1  2AB7               	goto	l4903
  1170                           	
  1171  02A2                     l723:	
  1172                           	line	63
  1173                           	
  1174  02A2                     l4899:	
  1175                           ;lcd.c: 63: send(*s++);
  1176  02A2  0877               	movf	(lcd_puts@s+1),w
  1177  02A3  00FF               	movwf	btemp+1
  1178  02A4  0876               	movf	(lcd_puts@s),w
  1179  02A5  0084               	movwf	fsr0
  1180  02A6  120A  118A  2003   	fcall	stringtab
              120A  118A         
  1181  02AB  120A  118A  237A   	fcall	_send
              120A  118A         
  1182                           	
  1183  02B0                     l4901:	
  1184  02B0  3001               	movlw	low(01h)
  1185  02B1  07F6               	addwf	(lcd_puts@s),f
  1186  02B2  1803               	skipnc
  1187  02B3  0AF7               	incf	(lcd_puts@s+1),f
  1188  02B4  3000               	movlw	high(01h)
  1189  02B5  07F7               	addwf	(lcd_puts@s+1),f
  1190  02B6  2AB7               	goto	l4903
  1191                           	
  1192  02B7                     l722:	
  1193                           	line	62
  1194                           	
  1195  02B7                     l4903:	
  1196  02B7  0877               	movf	(lcd_puts@s+1),w
  1197  02B8  1283               	bcf	status, 5	;RP0=0, select bank0
  1198  02B9  1303               	bcf	status, 6	;RP1=0, select bank0
  1199  02BA  00FF               	movwf	btemp+1
  1200  02BB  0876               	movf	(lcd_puts@s),w
  1201  02BC  0084               	movwf	fsr0
  1202  02BD  120A  118A  2003   	fcall	stringtab
              120A  118A         
  1203  02C2  3800               	iorlw	0
  1204  02C3  1D03               	skipz
  1205  02C4  2AC6               	goto	u3411
  1206  02C5  2AC7               	goto	u3410
  1207  02C6                     u3411:
  1208  02C6  2AA2               	goto	l4899
  1209  02C7                     u3410:
  1210  02C7  2AC8               	goto	l725
  1211                           	
  1212  02C8                     l724:	
  1213                           	line	64
  1214                           	
  1215  02C8                     l725:	
  1216  02C8  0008               	return
  1217                           	opt stack 0
  1218                           GLOBAL	__end_of_lcd_puts
  1219  02C9                     	__end_of_lcd_puts:
  1220 ;; =============== function _lcd_puts ends ============
  1221                           
  1222                           	signat	_lcd_puts,4216
  1223                           	global	_lcd_init
  1224                           psect	text421,local,class=CODE,delta=2
  1225                           global __ptext421
  1226  0458                     __ptext421:
  1227                           
  1228 ;; *************** function _lcd_init *****************
  1229 ;; Defined at:
  1230 ;;		line 13 in file "F:\Prolific\pic_s\pic_pgm\12.2 adc lm35(temp)_10bit - Copy\program\lcd.c"
  1231 ;; Parameters:    Size  Location     Type
  1232 ;;		None
  1233 ;; Auto vars:     Size  Location     Type
  1234 ;;		None
  1235 ;; Return value:  Size  Location     Type
  1236 ;;		None               void
  1237 ;; Registers used:
  1238 ;;		wreg, status,2, status,0, pclath, cstack
  1239 ;; Tracked objects:
  1240 ;;		On entry : 0/0
  1241 ;;		On exit  : 0/0
  1242 ;;		Unchanged: 0/0
  1243 ;; Data sizes:     COMMON   BANK0   BANK1   BANK3   BANK2
  1244 ;;      Params:         0       0       0       0       0
  1245 ;;      Locals:         0       0       0       0       0
  1246 ;;      Temps:          3       0       0       0       0
  1247 ;;      Totals:         3       0       0       0       0
  1248 ;;Total ram usage:        3 bytes
  1249 ;; Hardware stack levels used:    1
  1250 ;; Hardware stack levels required when called:    2
  1251 ;; This function calls:
  1252 ;;		_LCD_STROBE
  1253 ;;		_send
  1254 ;; This function is called by:
  1255 ;;		_main
  1256 ;; This function uses a non-reentrant model
  1257 ;;
  1258                           psect	text421
  1259                           	file	"F:\Prolific\pic_s\pic_pgm\12.2 adc lm35(temp)_10bit - Copy\program\lcd.c"
  1260                           	line	13
  1261                           	global	__size_of_lcd_init
  1262  004E                     	__size_of_lcd_init	equ	__end_of_lcd_init-_lcd_init
  1263                           	
  1264  0458                     _lcd_init:	
  1265                           	opt	stack 5
  1266                           ; Regs used in _lcd_init: [wreg+status,2+status,0+pclath+cstack]
  1267                           	line	14
  1268                           	
  1269  0458                     l4883:	
  1270                           ;lcd.c: 14: TRISD=0;
  1271  0458  1683               	bsf	status, 5	;RP0=1, select bank1
  1272  0459  1303               	bcf	status, 6	;RP1=0, select bank1
  1273  045A  0188               	clrf	(136)^080h	;volatile
  1274                           	line	15
  1275                           	
  1276  045B                     l4885:	
  1277                           ;lcd.c: 15: _delay((unsigned long)((100)*(20000000/4000.0)));
  1278                           	opt asmopt_off
  1279  045B  3003               movlw  3
  1280  045C  00F8               movwf	((??_lcd_init+0)+0+2),f
  1281  045D  308A               movlw	138
  1282  045E  00F7               movwf	((??_lcd_init+0)+0+1),f
  1283  045F  3056               	movlw	86
  1284  0460  00F6               movwf	((??_lcd_init+0)+0),f
  1285  0461                     u3427:
  1286  0461  0BF6               	decfsz	((??_lcd_init+0)+0),f
  1287  0462  2C61               	goto	u3427
  1288  0463  0BF7               	decfsz	((??_lcd_init+0)+0+1),f
  1289  0464  2C61               	goto	u3427
  1290  0465  0BF8               	decfsz	((??_lcd_init+0)+0+2),f
  1291  0466  2C61               	goto	u3427
  1292  0467  2C68               	nop2
  1293                           opt asmopt_on
  1294                           
  1295                           	line	16
  1296                           	
  1297  0468                     l4887:	
  1298                           ;lcd.c: 16: RD2=0;
  1299  0468  1283               	bcf	status, 5	;RP0=0, select bank0
  1300  0469  1303               	bcf	status, 6	;RP1=0, select bank0
  1301  046A  1108               	bcf	(66/8),(66)&7
  1302                           	line	17
  1303                           	
  1304  046B                     l4889:	
  1305                           ;lcd.c: 17: mode=0;
  1306  046B  104C               	bcf	(_mode/8),(_mode)&7
  1307                           	line	18
  1308                           	
  1309  046C                     l4891:	
  1310                           ;lcd.c: 18: RD3=0;
  1311  046C  1188               	bcf	(67/8),(67)&7
  1312                           	line	20
  1313                           ;lcd.c: 20: PORTD=(PORTD&0X0F)|0x30;
  1314  046D  0808               	movf	(8),w
  1315  046E  390F               	andlw	0Fh
  1316  046F  3830               	iorlw	030h
  1317  0470  0088               	movwf	(8)	;volatile
  1318                           	line	21
  1319                           	
  1320  0471                     l4893:	
  1321                           ;lcd.c: 21: LCD_STROBE();
  1322  0471  120A  118A  223F   	fcall	_LCD_STROBE
              120A  118A         
  1323                           	line	22
  1324                           	
  1325  0476                     l4895:	
  1326                           ;lcd.c: 22: PORTD=(PORTD&0X0F)|0x20;
  1327  0476  1283               	bcf	status, 5	;RP0=0, select bank0
  1328  0477  1303               	bcf	status, 6	;RP1=0, select bank0
  1329  0478  0808               	movf	(8),w
  1330  0479  390F               	andlw	0Fh
  1331  047A  3820               	iorlw	020h
  1332  047B  0088               	movwf	(8)	;volatile
  1333                           	line	23
  1334                           ;lcd.c: 23: LCD_STROBE();
  1335  047C  120A  118A  223F   	fcall	_LCD_STROBE
              120A  118A         
  1336                           	line	24
  1337                           ;lcd.c: 24: send(0x28);
  1338  0481  3028               	movlw	(028h)
  1339  0482  120A  118A  237A   	fcall	_send
              120A  118A         
  1340                           	line	25
  1341                           ;lcd.c: 25: send(0x08);
  1342  0487  3008               	movlw	(08h)
  1343  0488  120A  118A  237A   	fcall	_send
              120A  118A         
  1344                           	line	26
  1345                           ;lcd.c: 26: send(0x01);
  1346  048D  3001               	movlw	(01h)
  1347  048E  120A  118A  237A   	fcall	_send
              120A  118A         
  1348                           	line	27
  1349                           ;lcd.c: 27: send(0x06);
  1350  0493  3006               	movlw	(06h)
  1351  0494  120A  118A  237A   	fcall	_send
              120A  118A         
  1352                           	line	28
  1353                           ;lcd.c: 28: send(0x80);
  1354  0499  3080               	movlw	(080h)
  1355  049A  120A  118A  237A   	fcall	_send
              120A  118A         
  1356                           	line	29
  1357                           ;lcd.c: 29: send(0x0c);
  1358  049F  300C               	movlw	(0Ch)
  1359  04A0  120A  118A  237A   	fcall	_send
              120A  118A         
  1360                           	line	30
  1361                           	
  1362  04A5                     l709:	
  1363  04A5  0008               	return
  1364                           	opt stack 0
  1365                           GLOBAL	__end_of_lcd_init
  1366  04A6                     	__end_of_lcd_init:
  1367 ;; =============== function _lcd_init ends ============
  1368                           
  1369                           	signat	_lcd_init,88
  1370                           	global	_itoa
  1371                           psect	text422,local,class=CODE,delta=2
  1372                           global __ptext422
  1373  02C9                     __ptext422:
  1374                           
  1375 ;; *************** function _itoa *****************
  1376 ;; Defined at:
  1377 ;;		line 5 in file "C:\Program Files (x86)\HI-TECH Software\PICC\9.82\sources\itoa.c"
  1378 ;; Parameters:    Size  Location     Type
  1379 ;;  buf             1    wreg     PTR unsigned char 
  1380 ;;		 -> buf(4), 
  1381 ;;  val             2    4[BANK0 ] int 
  1382 ;;  base            2    6[BANK0 ] int 
  1383 ;; Auto vars:     Size  Location     Type
  1384 ;;  buf             1    9[BANK0 ] PTR unsigned char 
  1385 ;;		 -> buf(4), 
  1386 ;;  cp              1    8[BANK0 ] PTR unsigned char 
  1387 ;;		 -> buf(4), 
  1388 ;; Return value:  Size  Location     Type
  1389 ;;                  1    wreg      PTR unsigned char 
  1390 ;; Registers used:
  1391 ;;		wreg, fsr0l, fsr0h, status,2, status,0, pclath, cstack
  1392 ;; Tracked objects:
  1393 ;;		On entry : 0/0
  1394 ;;		On exit  : 0/0
  1395 ;;		Unchanged: 0/0
  1396 ;; Data sizes:     COMMON   BANK0   BANK1   BANK3   BANK2
  1397 ;;      Params:         0       4       0       0       0
  1398 ;;      Locals:         0       2       0       0       0
  1399 ;;      Temps:          1       0       0       0       0
  1400 ;;      Totals:         1       6       0       0       0
  1401 ;;Total ram usage:        7 bytes
  1402 ;; Hardware stack levels used:    1
  1403 ;; Hardware stack levels required when called:    2
  1404 ;; This function calls:
  1405 ;;		_utoa
  1406 ;; This function is called by:
  1407 ;;		_main
  1408 ;; This function uses a non-reentrant model
  1409 ;;
  1410                           psect	text422
  1411                           	file	"C:\Program Files (x86)\HI-TECH Software\PICC\9.82\sources\itoa.c"
  1412                           	line	5
  1413                           	global	__size_of_itoa
  1414  0030                     	__size_of_itoa	equ	__end_of_itoa-_itoa
  1415                           	
  1416  02C9                     _itoa:	
  1417                           	opt	stack 5
  1418                           ; Regs used in _itoa: [wreg-fsr0h+status,2+status,0+pclath+cstack]
  1419                           ;itoa@buf stored from wreg
  1420  02C9  1283               	bcf	status, 5	;RP0=0, select bank0
  1421  02CA  1303               	bcf	status, 6	;RP1=0, select bank0
  1422  02CB  00A9               	movwf	(itoa@buf)
  1423                           	line	6
  1424                           	
  1425  02CC                     l4869:	
  1426  02CC  0829               	movf	(itoa@buf),w
  1427  02CD  00FD               	movwf	(??_itoa+0)+0
  1428  02CE  087D               	movf	(??_itoa+0)+0,w
  1429  02CF  00A8               	movwf	(itoa@cp)
  1430                           	line	8
  1431                           	
  1432  02D0                     l4871:	
  1433  02D0  1FA5               	btfss	(itoa@val+1),7
  1434  02D1  2AD3               	goto	u3401
  1435  02D2  2AD4               	goto	u3400
  1436  02D3                     u3401:
  1437  02D3  2AE5               	goto	l4879
  1438  02D4                     u3400:
  1439                           	line	9
  1440                           	
  1441  02D4                     l4873:	
  1442  02D4  302D               	movlw	(02Dh)
  1443  02D5  00FD               	movwf	(??_itoa+0)+0
  1444  02D6  0829               	movf	(itoa@buf),w
  1445  02D7  0084               	movwf	fsr0
  1446  02D8  087D               	movf	(??_itoa+0)+0,w
  1447  02D9  1383               	bcf	status, 7	;select IRP bank0
  1448  02DA  0080               	movwf	indf
  1449                           	
  1450  02DB                     l4875:	
  1451  02DB  3001               	movlw	(01h)
  1452  02DC  00FD               	movwf	(??_itoa+0)+0
  1453  02DD  087D               	movf	(??_itoa+0)+0,w
  1454  02DE  07A9               	addwf	(itoa@buf),f
  1455                           	line	10
  1456                           	
  1457  02DF                     l4877:	
  1458  02DF  09A4               	comf	(itoa@val),f
  1459  02E0  09A5               	comf	(itoa@val+1),f
  1460  02E1  0AA4               	incf	(itoa@val),f
  1461  02E2  1903               	skipnz
  1462  02E3  0AA5               	incf	(itoa@val+1),f
  1463  02E4  2AE5               	goto	l4879
  1464                           	line	11
  1465                           	
  1466  02E5                     l2839:	
  1467                           	line	12
  1468                           	
  1469  02E5                     l4879:	
  1470  02E5  0825               	movf	(itoa@val+1),w
  1471  02E6  01F9               	clrf	(?_utoa+1)
  1472  02E7  07F9               	addwf	(?_utoa+1)
  1473  02E8  0824               	movf	(itoa@val),w
  1474  02E9  01F8               	clrf	(?_utoa)
  1475  02EA  07F8               	addwf	(?_utoa)
  1476                           
  1477  02EB  0827               	movf	(itoa@base+1),w
  1478  02EC  01FB               	clrf	1+(?_utoa)+02h
  1479  02ED  07FB               	addwf	1+(?_utoa)+02h
  1480  02EE  0826               	movf	(itoa@base),w
  1481  02EF  01FA               	clrf	0+(?_utoa)+02h
  1482  02F0  07FA               	addwf	0+(?_utoa)+02h
  1483                           
  1484  02F1  0829               	movf	(itoa@buf),w
  1485  02F2  120A  118A  2521   	fcall	_utoa
              120A  118A         
  1486  02F7  2AF8               	goto	l2840
  1487                           	line	13
  1488                           	
  1489  02F8                     l4881:	
  1490                           	line	14
  1491                           ;	Return value of _itoa is never used
  1492                           	
  1493  02F8                     l2840:	
  1494  02F8  0008               	return
  1495                           	opt stack 0
  1496                           GLOBAL	__end_of_itoa
  1497  02F9                     	__end_of_itoa:
  1498 ;; =============== function _itoa ends ============
  1499                           
  1500                           	signat	_itoa,12409
  1501                           	global	_send
  1502                           psect	text423,local,class=CODE,delta=2
  1503                           global __ptext423
  1504  037A                     __ptext423:
  1505                           
  1506 ;; *************** function _send *****************
  1507 ;; Defined at:
  1508 ;;		line 38 in file "F:\Prolific\pic_s\pic_pgm\12.2 adc lm35(temp)_10bit - Copy\program\lcd.c"
  1509 ;; Parameters:    Size  Location     Type
  1510 ;;  x               1    wreg     unsigned char 
  1511 ;; Auto vars:     Size  Location     Type
  1512 ;;  x               1    5[COMMON] unsigned char 
  1513 ;;  temp            1    4[COMMON] unsigned char 
  1514 ;; Return value:  Size  Location     Type
  1515 ;;		None               void
  1516 ;; Registers used:
  1517 ;;		wreg, status,2, status,0, pclath, cstack
  1518 ;; Tracked objects:
  1519 ;;		On entry : 0/0
  1520 ;;		On exit  : 0/0
  1521 ;;		Unchanged: 0/0
  1522 ;; Data sizes:     COMMON   BANK0   BANK1   BANK3   BANK2
  1523 ;;      Params:         0       0       0       0       0
  1524 ;;      Locals:         2       0       0       0       0
  1525 ;;      Temps:          2       0       0       0       0
  1526 ;;      Totals:         4       0       0       0       0
  1527 ;;Total ram usage:        4 bytes
  1528 ;; Hardware stack levels used:    1
  1529 ;; Hardware stack levels required when called:    1
  1530 ;; This function calls:
  1531 ;;		_LCD_STROBE
  1532 ;; This function is called by:
  1533 ;;		_lcd_init
  1534 ;;		_lcd_puts
  1535 ;;		_lcd_goto
  1536 ;;		_lcd_clear
  1537 ;;		_lcd_putch
  1538 ;;		_curser
  1539 ;;		_display_shift
  1540 ;;		_curser_shift_left
  1541 ;;		_curser_shift_right
  1542 ;; This function uses a non-reentrant model
  1543 ;;
  1544                           psect	text423
  1545                           	file	"F:\Prolific\pic_s\pic_pgm\12.2 adc lm35(temp)_10bit - Copy\program\lcd.c"
  1546                           	line	38
  1547                           	global	__size_of_send
  1548  0047                     	__size_of_send	equ	__end_of_send-_send
  1549                           	
  1550  037A                     _send:	
  1551                           	opt	stack 5
  1552                           ; Regs used in _send: [wreg+status,2+status,0+pclath+cstack]
  1553                           ;send@x stored from wreg
  1554                           	line	40
  1555  037A  00F5               	movwf	(send@x)
  1556                           	
  1557  037B                     l4843:	
  1558                           ;lcd.c: 39: char temp;
  1559                           ;lcd.c: 40: temp=x;
  1560  037B  0875               	movf	(send@x),w
  1561  037C  00F2               	movwf	(??_send+0)+0
  1562  037D  0872               	movf	(??_send+0)+0,w
  1563  037E  00F4               	movwf	(send@temp)
  1564                           	line	41
  1565                           	
  1566  037F                     l4845:	
  1567                           ;lcd.c: 41: x=x&0XF0;
  1568  037F  0875               	movf	(send@x),w
  1569  0380  39F0               	andlw	0F0h
  1570  0381  00F2               	movwf	(??_send+0)+0
  1571  0382  0872               	movf	(??_send+0)+0,w
  1572  0383  00F5               	movwf	(send@x)
  1573                           	line	42
  1574                           	
  1575  0384                     l4847:	
  1576                           ;lcd.c: 42: PORTD=(PORTD&0X0F)|x;
  1577  0384  1283               	bcf	status, 5	;RP0=0, select bank0
  1578  0385  1303               	bcf	status, 6	;RP1=0, select bank0
  1579  0386  0808               	movf	(8),w
  1580  0387  390F               	andlw	0Fh
  1581  0388  0475               	iorwf	(send@x),w
  1582  0389  0088               	movwf	(8)	;volatile
  1583                           	line	43
  1584                           	
  1585  038A                     l4849:	
  1586                           ;lcd.c: 43: if (mode==0)
  1587  038A  184C               	btfsc	(_mode/8),(_mode)&7
  1588  038B  2B8D               	goto	u3371
  1589  038C  2B8E               	goto	u3370
  1590  038D                     u3371:
  1591  038D  2B90               	goto	l715
  1592  038E                     u3370:
  1593                           	line	44
  1594                           	
  1595  038E                     l4851:	
  1596                           ;lcd.c: 44: RD2=0;
  1597  038E  1108               	bcf	(66/8),(66)&7
  1598  038F  2B92               	goto	l4853
  1599                           	line	45
  1600                           	
  1601  0390                     l715:	
  1602                           	line	46
  1603                           ;lcd.c: 45: else
  1604                           ;lcd.c: 46: RD2=1;
  1605  0390  1508               	bsf	(66/8),(66)&7
  1606  0391  2B92               	goto	l4853
  1607                           	
  1608  0392                     l716:	
  1609                           	line	47
  1610                           	
  1611  0392                     l4853:	
  1612                           ;lcd.c: 47: LCD_STROBE();
  1613  0392  120A  118A  223F   	fcall	_LCD_STROBE
              120A  118A         
  1614                           	line	48
  1615                           	
  1616  0397                     l4855:	
  1617                           ;lcd.c: 48: x=temp;
  1618  0397  0874               	movf	(send@temp),w
  1619  0398  00F2               	movwf	(??_send+0)+0
  1620  0399  0872               	movf	(??_send+0)+0,w
  1621  039A  00F5               	movwf	(send@x)
  1622                           	line	49
  1623                           	
  1624  039B                     l4857:	
  1625                           ;lcd.c: 49: x=x<<4;
  1626  039B  0875               	movf	(send@x),w
  1627  039C  00F2               	movwf	(??_send+0)+0
  1628  039D  3003               	movlw	(04h)-1
  1629  039E                     u3385:
  1630  039E  1003               	clrc
  1631  039F  0DF2               	rlf	(??_send+0)+0,f
  1632  03A0  3EFF               	addlw	-1
  1633  03A1  1D03               	skipz
  1634  03A2  2B9E               	goto	u3385
  1635  03A3  1003               	clrc
  1636  03A4  0D72               	rlf	(??_send+0)+0,w
  1637  03A5  00F3               	movwf	(??_send+1)+0
  1638  03A6  0873               	movf	(??_send+1)+0,w
  1639  03A7  00F5               	movwf	(send@x)
  1640                           	line	50
  1641                           	
  1642  03A8                     l4859:	
  1643                           ;lcd.c: 50: x=x&0XF0;
  1644  03A8  0875               	movf	(send@x),w
  1645  03A9  39F0               	andlw	0F0h
  1646  03AA  00F2               	movwf	(??_send+0)+0
  1647  03AB  0872               	movf	(??_send+0)+0,w
  1648  03AC  00F5               	movwf	(send@x)
  1649                           	line	51
  1650                           	
  1651  03AD                     l4861:	
  1652                           ;lcd.c: 51: PORTD=(PORTD&0X0F)|x;
  1653  03AD  1283               	bcf	status, 5	;RP0=0, select bank0
  1654  03AE  1303               	bcf	status, 6	;RP1=0, select bank0
  1655  03AF  0808               	movf	(8),w
  1656  03B0  390F               	andlw	0Fh
  1657  03B1  0475               	iorwf	(send@x),w
  1658  03B2  0088               	movwf	(8)	;volatile
  1659                           	line	52
  1660                           	
  1661  03B3                     l4863:	
  1662                           ;lcd.c: 52: if(mode==0)
  1663  03B3  184C               	btfsc	(_mode/8),(_mode)&7
  1664  03B4  2BB6               	goto	u3391
  1665  03B5  2BB7               	goto	u3390
  1666  03B6                     u3391:
  1667  03B6  2BB9               	goto	l717
  1668  03B7                     u3390:
  1669                           	line	53
  1670                           	
  1671  03B7                     l4865:	
  1672                           ;lcd.c: 53: RD2=0;
  1673  03B7  1108               	bcf	(66/8),(66)&7
  1674  03B8  2BBB               	goto	l4867
  1675                           	line	54
  1676                           	
  1677  03B9                     l717:	
  1678                           	line	55
  1679                           ;lcd.c: 54: else
  1680                           ;lcd.c: 55: RD2=1;
  1681  03B9  1508               	bsf	(66/8),(66)&7
  1682  03BA  2BBB               	goto	l4867
  1683                           	
  1684  03BB                     l718:	
  1685                           	line	56
  1686                           	
  1687  03BB                     l4867:	
  1688                           ;lcd.c: 56: LCD_STROBE();
  1689  03BB  120A  118A  223F   	fcall	_LCD_STROBE
              120A  118A         
  1690                           	line	57
  1691                           	
  1692  03C0                     l719:	
  1693  03C0  0008               	return
  1694                           	opt stack 0
  1695                           GLOBAL	__end_of_send
  1696  03C1                     	__end_of_send:
  1697 ;; =============== function _send ends ============
  1698                           
  1699                           	signat	_send,4216
  1700                           	global	___lwtoft
  1701                           psect	text424,local,class=CODE,delta=2
  1702                           global __ptext424
  1703  0262                     __ptext424:
  1704                           
  1705 ;; *************** function ___lwtoft *****************
  1706 ;; Defined at:
  1707 ;;		line 29 in file "C:\Program Files (x86)\HI-TECH Software\PICC\9.82\sources\lwtoft.c"
  1708 ;; Parameters:    Size  Location     Type
  1709 ;;  c               2   10[BANK0 ] unsigned int 
  1710 ;; Auto vars:     Size  Location     Type
  1711 ;;		None
  1712 ;; Return value:  Size  Location     Type
  1713 ;;                  3   10[BANK0 ] float 
  1714 ;; Registers used:
  1715 ;;		wreg, status,2, status,0, pclath, cstack
  1716 ;; Tracked objects:
  1717 ;;		On entry : 0/0
  1718 ;;		On exit  : 0/0
  1719 ;;		Unchanged: 0/0
  1720 ;; Data sizes:     COMMON   BANK0   BANK1   BANK3   BANK2
  1721 ;;      Params:         0       3       0       0       0
  1722 ;;      Locals:         0       0       0       0       0
  1723 ;;      Temps:          1       0       0       0       0
  1724 ;;      Totals:         1       3       0       0       0
  1725 ;;Total ram usage:        4 bytes
  1726 ;; Hardware stack levels used:    1
  1727 ;; Hardware stack levels required when called:    1
  1728 ;; This function calls:
  1729 ;;		___ftpack
  1730 ;; This function is called by:
  1731 ;;		_main
  1732 ;; This function uses a non-reentrant model
  1733 ;;
  1734                           psect	text424
  1735                           	file	"C:\Program Files (x86)\HI-TECH Software\PICC\9.82\sources\lwtoft.c"
  1736                           	line	29
  1737                           	global	__size_of___lwtoft
  1738  001B                     	__size_of___lwtoft	equ	__end_of___lwtoft-___lwtoft
  1739                           	
  1740  0262                     ___lwtoft:	
  1741                           	opt	stack 6
  1742                           ; Regs used in ___lwtoft: [wreg+status,2+status,0+pclath+cstack]
  1743                           	line	30
  1744                           	
  1745  0262                     l4839:	
  1746  0262  1283               	bcf	status, 5	;RP0=0, select bank0
  1747  0263  1303               	bcf	status, 6	;RP1=0, select bank0
  1748  0264  082A               	movf	(___lwtoft@c),w
  1749  0265  00F0               	movwf	(?___ftpack)
  1750  0266  082B               	movf	(___lwtoft@c+1),w
  1751  0267  00F1               	movwf	(?___ftpack+1)
  1752  0268  01F2               	clrf	(?___ftpack+2)
  1753  0269  308E               	movlw	(08Eh)
  1754  026A  00FC               	movwf	(??___lwtoft+0)+0
  1755  026B  087C               	movf	(??___lwtoft+0)+0,w
  1756  026C  00F3               	movwf	0+(?___ftpack)+03h
  1757  026D  01F4               	clrf	0+(?___ftpack)+04h
  1758  026E  120A  118A  24A6   	fcall	___ftpack
              120A  118A         
  1759  0273  0870               	movf	(0+(?___ftpack)),w
  1760  0274  1283               	bcf	status, 5	;RP0=0, select bank0
  1761  0275  1303               	bcf	status, 6	;RP1=0, select bank0
  1762  0276  00AA               	movwf	(?___lwtoft)
  1763  0277  0871               	movf	(1+(?___ftpack)),w
  1764  0278  00AB               	movwf	(?___lwtoft+1)
  1765  0279  0872               	movf	(2+(?___ftpack)),w
  1766  027A  00AC               	movwf	(?___lwtoft+2)
  1767  027B  2A7C               	goto	l3080
  1768                           	
  1769  027C                     l4841:	
  1770                           	line	31
  1771                           	
  1772  027C                     l3080:	
  1773  027C  0008               	return
  1774                           	opt stack 0
  1775                           GLOBAL	__end_of___lwtoft
  1776  027D                     	__end_of___lwtoft:
  1777 ;; =============== function ___lwtoft ends ============
  1778                           
  1779                           	signat	___lwtoft,4219
  1780                           	global	___ftmul
  1781                           psect	text425,local,class=CODE,delta=2
  1782                           global __ptext425
  1783  0712                     __ptext425:
  1784                           
  1785 ;; *************** function ___ftmul *****************
  1786 ;; Defined at:
  1787 ;;		line 52 in file "C:\Program Files (x86)\HI-TECH Software\PICC\9.82\sources\ftmul.c"
  1788 ;; Parameters:    Size  Location     Type
  1789 ;;  f1              3   13[BANK0 ] float 
  1790 ;;  f2              3   16[BANK0 ] float 
  1791 ;; Auto vars:     Size  Location     Type
  1792 ;;  f3_as_produc    3   24[BANK0 ] unsigned um
  1793 ;;  sign            1   28[BANK0 ] unsigned char 
  1794 ;;  cntr            1   27[BANK0 ] unsigned char 
  1795 ;;  exp             1   23[BANK0 ] unsigned char 
  1796 ;; Return value:  Size  Location     Type
  1797 ;;                  3   13[BANK0 ] float 
  1798 ;; Registers used:
  1799 ;;		wreg, status,2, status,0, pclath, cstack
  1800 ;; Tracked objects:
  1801 ;;		On entry : 0/0
  1802 ;;		On exit  : 0/0
  1803 ;;		Unchanged: 0/0
  1804 ;; Data sizes:     COMMON   BANK0   BANK1   BANK3   BANK2
  1805 ;;      Params:         0       6       0       0       0
  1806 ;;      Locals:         0       6       0       0       0
  1807 ;;      Temps:          0       4       0       0       0
  1808 ;;      Totals:         0      16       0       0       0
  1809 ;;Total ram usage:       16 bytes
  1810 ;; Hardware stack levels used:    1
  1811 ;; Hardware stack levels required when called:    1
  1812 ;; This function calls:
  1813 ;;		___ftpack
  1814 ;; This function is called by:
  1815 ;;		_main
  1816 ;; This function uses a non-reentrant model
  1817 ;;
  1818                           psect	text425
  1819                           	file	"C:\Program Files (x86)\HI-TECH Software\PICC\9.82\sources\ftmul.c"
  1820                           	line	52
  1821                           	global	__size_of___ftmul
  1822  00EE                     	__size_of___ftmul	equ	__end_of___ftmul-___ftmul
  1823                           	
  1824  0712                     ___ftmul:	
  1825                           	opt	stack 6
  1826                           ; Regs used in ___ftmul: [wreg+status,2+status,0+pclath+cstack]
  1827                           	line	56
  1828                           	
  1829  0712                     l4789:	
  1830  0712  1283               	bcf	status, 5	;RP0=0, select bank0
  1831  0713  1303               	bcf	status, 6	;RP1=0, select bank0
  1832  0714  082D               	movf	(___ftmul@f1),w
  1833  0715  00B3               	movwf	((??___ftmul+0)+0)
  1834  0716  082E               	movf	(___ftmul@f1+1),w
  1835  0717  00B4               	movwf	((??___ftmul+0)+0+1)
  1836  0718  082F               	movf	(___ftmul@f1+2),w
  1837  0719  00B5               	movwf	((??___ftmul+0)+0+2)
  1838  071A  1003               	clrc
  1839  071B  0D34               	rlf	(??___ftmul+0)+1,w
  1840  071C  0D35               	rlf	(??___ftmul+0)+2,w
  1841  071D  00B6               	movwf	(??___ftmul+3)+0
  1842  071E  0836               	movf	(??___ftmul+3)+0,w
  1843  071F  00B7               	movwf	(___ftmul@exp)
  1844  0720  08B7               	movf	((___ftmul@exp)),f
  1845  0721  1D03               	skipz
  1846  0722  2F24               	goto	u3231
  1847  0723  2F25               	goto	u3230
  1848  0724                     u3231:
  1849  0724  2F2D               	goto	l4795
  1850  0725                     u3230:
  1851                           	line	57
  1852                           	
  1853  0725                     l4791:	
  1854  0725  3000               	movlw	0x0
  1855  0726  00AD               	movwf	(?___ftmul)
  1856  0727  3000               	movlw	0x0
  1857  0728  00AE               	movwf	(?___ftmul+1)
  1858  0729  3000               	movlw	0x0
  1859  072A  00AF               	movwf	(?___ftmul+2)
  1860  072B  2FFF               	goto	l2956
  1861                           	
  1862  072C                     l4793:	
  1863  072C  2FFF               	goto	l2956
  1864                           	
  1865  072D                     l2955:	
  1866                           	line	58
  1867                           	
  1868  072D                     l4795:	
  1869  072D  0830               	movf	(___ftmul@f2),w
  1870  072E  00B3               	movwf	((??___ftmul+0)+0)
  1871  072F  0831               	movf	(___ftmul@f2+1),w
  1872  0730  00B4               	movwf	((??___ftmul+0)+0+1)
  1873  0731  0832               	movf	(___ftmul@f2+2),w
  1874  0732  00B5               	movwf	((??___ftmul+0)+0+2)
  1875  0733  1003               	clrc
  1876  0734  0D34               	rlf	(??___ftmul+0)+1,w
  1877  0735  0D35               	rlf	(??___ftmul+0)+2,w
  1878  0736  00B6               	movwf	(??___ftmul+3)+0
  1879  0737  0836               	movf	(??___ftmul+3)+0,w
  1880  0738  00BC               	movwf	(___ftmul@sign)
  1881  0739  08BC               	movf	((___ftmul@sign)),f
  1882  073A  1D03               	skipz
  1883  073B  2F3D               	goto	u3241
  1884  073C  2F3E               	goto	u3240
  1885  073D                     u3241:
  1886  073D  2F46               	goto	l4801
  1887  073E                     u3240:
  1888                           	line	59
  1889                           	
  1890  073E                     l4797:	
  1891  073E  3000               	movlw	0x0
  1892  073F  00AD               	movwf	(?___ftmul)
  1893  0740  3000               	movlw	0x0
  1894  0741  00AE               	movwf	(?___ftmul+1)
  1895  0742  3000               	movlw	0x0
  1896  0743  00AF               	movwf	(?___ftmul+2)
  1897  0744  2FFF               	goto	l2956
  1898                           	
  1899  0745                     l4799:	
  1900  0745  2FFF               	goto	l2956
  1901                           	
  1902  0746                     l2957:	
  1903                           	line	60
  1904                           	
  1905  0746                     l4801:	
  1906  0746  083C               	movf	(___ftmul@sign),w
  1907  0747  3E7B               	addlw	07Bh
  1908  0748  00B3               	movwf	(??___ftmul+0)+0
  1909  0749  0833               	movf	(??___ftmul+0)+0,w
  1910  074A  07B7               	addwf	(___ftmul@exp),f
  1911                           	line	61
  1912  074B  082D               	movf	(___ftmul@f1),w
  1913  074C  00B3               	movwf	((??___ftmul+0)+0)
  1914  074D  082E               	movf	(___ftmul@f1+1),w
  1915  074E  00B4               	movwf	((??___ftmul+0)+0+1)
  1916  074F  082F               	movf	(___ftmul@f1+2),w
  1917  0750  00B5               	movwf	((??___ftmul+0)+0+2)
  1918  0751  3010               	movlw	010h
  1919  0752                     u3255:
  1920  0752  1003               	clrc
  1921  0753  0CB5               	rrf	(??___ftmul+0)+2,f
  1922  0754  0CB4               	rrf	(??___ftmul+0)+1,f
  1923  0755  0CB3               	rrf	(??___ftmul+0)+0,f
  1924  0756                     u3250:
  1925  0756  3EFF               	addlw	-1
  1926  0757  1D03               	skipz
  1927  0758  2F52               	goto	u3255
  1928  0759  0833               	movf	0+(??___ftmul+0)+0,w
  1929  075A  00B6               	movwf	(??___ftmul+3)+0
  1930  075B  0836               	movf	(??___ftmul+3)+0,w
  1931  075C  00BC               	movwf	(___ftmul@sign)
  1932                           	line	62
  1933  075D  0830               	movf	(___ftmul@f2),w
  1934  075E  00B3               	movwf	((??___ftmul+0)+0)
  1935  075F  0831               	movf	(___ftmul@f2+1),w
  1936  0760  00B4               	movwf	((??___ftmul+0)+0+1)
  1937  0761  0832               	movf	(___ftmul@f2+2),w
  1938  0762  00B5               	movwf	((??___ftmul+0)+0+2)
  1939  0763  3010               	movlw	010h
  1940  0764                     u3265:
  1941  0764  1003               	clrc
  1942  0765  0CB5               	rrf	(??___ftmul+0)+2,f
  1943  0766  0CB4               	rrf	(??___ftmul+0)+1,f
  1944  0767  0CB3               	rrf	(??___ftmul+0)+0,f
  1945  0768                     u3260:
  1946  0768  3EFF               	addlw	-1
  1947  0769  1D03               	skipz
  1948  076A  2F64               	goto	u3265
  1949  076B  0833               	movf	0+(??___ftmul+0)+0,w
  1950  076C  00B6               	movwf	(??___ftmul+3)+0
  1951  076D  0836               	movf	(??___ftmul+3)+0,w
  1952  076E  06BC               	xorwf	(___ftmul@sign),f
  1953                           	line	63
  1954  076F  3080               	movlw	(080h)
  1955  0770  00B3               	movwf	(??___ftmul+0)+0
  1956  0771  0833               	movf	(??___ftmul+0)+0,w
  1957  0772  05BC               	andwf	(___ftmul@sign),f
  1958                           	line	64
  1959                           	
  1960  0773                     l4803:	
  1961  0773  17AE               	bsf	(___ftmul@f1)+(15/8),(15)&7
  1962                           	line	66
  1963                           	
  1964  0774                     l4805:	
  1965  0774  17B1               	bsf	(___ftmul@f2)+(15/8),(15)&7
  1966                           	line	67
  1967                           	
  1968  0775                     l4807:	
  1969  0775  30FF               	movlw	0FFh
  1970  0776  05B0               	andwf	(___ftmul@f2),f
  1971  0777  30FF               	movlw	0FFh
  1972  0778  05B1               	andwf	(___ftmul@f2+1),f
  1973  0779  3000               	movlw	0
  1974  077A  05B2               	andwf	(___ftmul@f2+2),f
  1975                           	line	68
  1976                           	
  1977  077B                     l4809:	
  1978  077B  3000               	movlw	0
  1979  077C  00B8               	movwf	(___ftmul@f3_as_product)
  1980  077D  3000               	movlw	0
  1981  077E  00B9               	movwf	(___ftmul@f3_as_product+1)
  1982  077F  3000               	movlw	0
  1983  0780  00BA               	movwf	(___ftmul@f3_as_product+2)
  1984                           	line	69
  1985                           	
  1986  0781                     l4811:	
  1987  0781  3007               	movlw	(07h)
  1988  0782  00B3               	movwf	(??___ftmul+0)+0
  1989  0783  0833               	movf	(??___ftmul+0)+0,w
  1990  0784  00BB               	movwf	(___ftmul@cntr)
  1991  0785  2F86               	goto	l4813
  1992                           	line	70
  1993                           	
  1994  0786                     l2958:	
  1995                           	line	71
  1996                           	
  1997  0786                     l4813:	
  1998  0786  1C2D               	btfss	(___ftmul@f1),(0)&7
  1999  0787  2F89               	goto	u3271
  2000  0788  2F8A               	goto	u3270
  2001  0789                     u3271:
  2002  0789  2F9B               	goto	l4817
  2003  078A                     u3270:
  2004                           	line	72
  2005                           	
  2006  078A                     l4815:	
  2007  078A  0830               	movf	(___ftmul@f2),w
  2008  078B  07B8               	addwf	(___ftmul@f3_as_product),f
  2009  078C  0831               	movf	(___ftmul@f2+1),w
  2010  078D  1103               	clrz
  2011  078E  1803               	skipnc
  2012  078F  0A31               	incf	(___ftmul@f2+1),w
  2013  0790  1903               	skipnz
  2014  0791  2F93               	goto	u3281
  2015  0792  07B9               	addwf	(___ftmul@f3_as_product+1),f
  2016  0793                     u3281:
  2017  0793  0832               	movf	(___ftmul@f2+2),w
  2018  0794  1103               	clrz
  2019  0795  1803               	skipnc
  2020  0796  0A32               	incf	(___ftmul@f2+2),w
  2021  0797  1903               	skipnz
  2022  0798  2F9A               	goto	u3282
  2023  0799  07BA               	addwf	(___ftmul@f3_as_product+2),f
  2024  079A                     u3282:
  2025                           
  2026  079A  2F9B               	goto	l4817
  2027                           	
  2028  079B                     l2959:	
  2029                           	line	73
  2030                           	
  2031  079B                     l4817:	
  2032  079B  3001               	movlw	01h
  2033  079C                     u3295:
  2034  079C  1003               	clrc
  2035  079D  0CAF               	rrf	(___ftmul@f1+2),f
  2036  079E  0CAE               	rrf	(___ftmul@f1+1),f
  2037  079F  0CAD               	rrf	(___ftmul@f1),f
  2038  07A0  3EFF               	addlw	-1
  2039  07A1  1D03               	skipz
  2040  07A2  2F9C               	goto	u3295
  2041                           
  2042                           	line	74
  2043                           	
  2044  07A3                     l4819:	
  2045  07A3  3001               	movlw	01h
  2046  07A4                     u3305:
  2047  07A4  1003               	clrc
  2048  07A5  0DB0               	rlf	(___ftmul@f2),f
  2049  07A6  0DB1               	rlf	(___ftmul@f2+1),f
  2050  07A7  0DB2               	rlf	(___ftmul@f2+2),f
  2051  07A8  3EFF               	addlw	-1
  2052  07A9  1D03               	skipz
  2053  07AA  2FA4               	goto	u3305
  2054                           	line	75
  2055                           	
  2056  07AB                     l4821:	
  2057  07AB  3001               	movlw	low(01h)
  2058  07AC  02BB               	subwf	(___ftmul@cntr),f
  2059  07AD  1D03               	btfss	status,2
  2060  07AE  2FB0               	goto	u3311
  2061  07AF  2FB1               	goto	u3310
  2062  07B0                     u3311:
  2063  07B0  2F86               	goto	l4813
  2064  07B1                     u3310:
  2065  07B1  2FB2               	goto	l4823
  2066                           	
  2067  07B2                     l2960:	
  2068                           	line	76
  2069                           	
  2070  07B2                     l4823:	
  2071  07B2  3009               	movlw	(09h)
  2072  07B3  00B3               	movwf	(??___ftmul+0)+0
  2073  07B4  0833               	movf	(??___ftmul+0)+0,w
  2074  07B5  00BB               	movwf	(___ftmul@cntr)
  2075  07B6  2FB7               	goto	l4825
  2076                           	line	77
  2077                           	
  2078  07B7                     l2961:	
  2079                           	line	78
  2080                           	
  2081  07B7                     l4825:	
  2082  07B7  1C2D               	btfss	(___ftmul@f1),(0)&7
  2083  07B8  2FBA               	goto	u3321
  2084  07B9  2FBB               	goto	u3320
  2085  07BA                     u3321:
  2086  07BA  2FCC               	goto	l4829
  2087  07BB                     u3320:
  2088                           	line	79
  2089                           	
  2090  07BB                     l4827:	
  2091  07BB  0830               	movf	(___ftmul@f2),w
  2092  07BC  07B8               	addwf	(___ftmul@f3_as_product),f
  2093  07BD  0831               	movf	(___ftmul@f2+1),w
  2094  07BE  1103               	clrz
  2095  07BF  1803               	skipnc
  2096  07C0  0A31               	incf	(___ftmul@f2+1),w
  2097  07C1  1903               	skipnz
  2098  07C2  2FC4               	goto	u3331
  2099  07C3  07B9               	addwf	(___ftmul@f3_as_product+1),f
  2100  07C4                     u3331:
  2101  07C4  0832               	movf	(___ftmul@f2+2),w
  2102  07C5  1103               	clrz
  2103  07C6  1803               	skipnc
  2104  07C7  0A32               	incf	(___ftmul@f2+2),w
  2105  07C8  1903               	skipnz
  2106  07C9  2FCB               	goto	u3332
  2107  07CA  07BA               	addwf	(___ftmul@f3_as_product+2),f
  2108  07CB                     u3332:
  2109                           
  2110  07CB  2FCC               	goto	l4829
  2111                           	
  2112  07CC                     l2962:	
  2113                           	line	80
  2114                           	
  2115  07CC                     l4829:	
  2116  07CC  3001               	movlw	01h
  2117  07CD                     u3345:
  2118  07CD  1003               	clrc
  2119  07CE  0CAF               	rrf	(___ftmul@f1+2),f
  2120  07CF  0CAE               	rrf	(___ftmul@f1+1),f
  2121  07D0  0CAD               	rrf	(___ftmul@f1),f
  2122  07D1  3EFF               	addlw	-1
  2123  07D2  1D03               	skipz
  2124  07D3  2FCD               	goto	u3345
  2125                           
  2126                           	line	81
  2127                           	
  2128  07D4                     l4831:	
  2129  07D4  3001               	movlw	01h
  2130  07D5                     u3355:
  2131  07D5  1003               	clrc
  2132  07D6  0CBA               	rrf	(___ftmul@f3_as_product+2),f
  2133  07D7  0CB9               	rrf	(___ftmul@f3_as_product+1),f
  2134  07D8  0CB8               	rrf	(___ftmul@f3_as_product),f
  2135  07D9  3EFF               	addlw	-1
  2136  07DA  1D03               	skipz
  2137  07DB  2FD5               	goto	u3355
  2138                           
  2139                           	line	82
  2140                           	
  2141  07DC                     l4833:	
  2142  07DC  3001               	movlw	low(01h)
  2143  07DD  02BB               	subwf	(___ftmul@cntr),f
  2144  07DE  1D03               	btfss	status,2
  2145  07DF  2FE1               	goto	u3361
  2146  07E0  2FE2               	goto	u3360
  2147  07E1                     u3361:
  2148  07E1  2FB7               	goto	l4825
  2149  07E2                     u3360:
  2150  07E2  2FE3               	goto	l4835
  2151                           	
  2152  07E3                     l2963:	
  2153                           	line	83
  2154                           	
  2155  07E3                     l4835:	
  2156  07E3  0838               	movf	(___ftmul@f3_as_product),w
  2157  07E4  00F0               	movwf	(?___ftpack)
  2158  07E5  0839               	movf	(___ftmul@f3_as_product+1),w
  2159  07E6  00F1               	movwf	(?___ftpack+1)
  2160  07E7  083A               	movf	(___ftmul@f3_as_product+2),w
  2161  07E8  00F2               	movwf	(?___ftpack+2)
  2162  07E9  0837               	movf	(___ftmul@exp),w
  2163  07EA  00B3               	movwf	(??___ftmul+0)+0
  2164  07EB  0833               	movf	(??___ftmul+0)+0,w
  2165  07EC  00F3               	movwf	0+(?___ftpack)+03h
  2166  07ED  083C               	movf	(___ftmul@sign),w
  2167  07EE  00B4               	movwf	(??___ftmul+1)+0
  2168  07EF  0834               	movf	(??___ftmul+1)+0,w
  2169  07F0  00F4               	movwf	0+(?___ftpack)+04h
  2170  07F1  120A  118A  24A6   	fcall	___ftpack
              120A  118A         
  2171  07F6  0870               	movf	(0+(?___ftpack)),w
  2172  07F7  1283               	bcf	status, 5	;RP0=0, select bank0
  2173  07F8  1303               	bcf	status, 6	;RP1=0, select bank0
  2174  07F9  00AD               	movwf	(?___ftmul)
  2175  07FA  0871               	movf	(1+(?___ftpack)),w
  2176  07FB  00AE               	movwf	(?___ftmul+1)
  2177  07FC  0872               	movf	(2+(?___ftpack)),w
  2178  07FD  00AF               	movwf	(?___ftmul+2)
  2179  07FE  2FFF               	goto	l2956
  2180                           	
  2181  07FF                     l4837:	
  2182                           	line	84
  2183                           	
  2184  07FF                     l2956:	
  2185  07FF  0008               	return
  2186                           	opt stack 0
  2187                           GLOBAL	__end_of___ftmul
  2188  0800                     	__end_of___ftmul:
  2189 ;; =============== function ___ftmul ends ============
  2190                           
  2191                           	signat	___ftmul,8315
  2192                           	global	_utoa
  2193                           psect	text426,local,class=CODE,delta=2
  2194                           global __ptext426
  2195  0521                     __ptext426:
  2196                           
  2197 ;; *************** function _utoa *****************
  2198 ;; Defined at:
  2199 ;;		line 18 in file "C:\Program Files (x86)\HI-TECH Software\PICC\9.82\sources\itoa.c"
  2200 ;; Parameters:    Size  Location     Type
  2201 ;;  buf             1    wreg     PTR unsigned char 
  2202 ;;		 -> buf(4), 
  2203 ;;  val             2    8[COMMON] unsigned int 
  2204 ;;  base            2   10[COMMON] int 
  2205 ;; Auto vars:     Size  Location     Type
  2206 ;;  buf             1    3[BANK0 ] PTR unsigned char 
  2207 ;;		 -> buf(4), 
  2208 ;;  v               2    0[BANK0 ] unsigned int 
  2209 ;;  c               1    2[BANK0 ] unsigned char 
  2210 ;; Return value:  Size  Location     Type
  2211 ;;                  1    wreg      PTR unsigned char 
  2212 ;; Registers used:
  2213 ;;		wreg, fsr0l, fsr0h, status,2, status,0, pclath, cstack
  2214 ;; Tracked objects:
  2215 ;;		On entry : 0/0
  2216 ;;		On exit  : 0/0
  2217 ;;		Unchanged: 0/0
  2218 ;; Data sizes:     COMMON   BANK0   BANK1   BANK3   BANK2
  2219 ;;      Params:         4       0       0       0       0
  2220 ;;      Locals:         0       4       0       0       0
  2221 ;;      Temps:          1       0       0       0       0
  2222 ;;      Totals:         5       4       0       0       0
  2223 ;;Total ram usage:        9 bytes
  2224 ;; Hardware stack levels used:    1
  2225 ;; Hardware stack levels required when called:    1
  2226 ;; This function calls:
  2227 ;;		___lwdiv
  2228 ;;		___lwmod
  2229 ;; This function is called by:
  2230 ;;		_itoa
  2231 ;; This function uses a non-reentrant model
  2232 ;;
  2233                           psect	text426
  2234                           	file	"C:\Program Files (x86)\HI-TECH Software\PICC\9.82\sources\itoa.c"
  2235                           	line	18
  2236                           	global	__size_of_utoa
  2237  0084                     	__size_of_utoa	equ	__end_of_utoa-_utoa
  2238                           	
  2239  0521                     _utoa:	
  2240                           	opt	stack 5
  2241                           ; Regs used in _utoa: [wreg-fsr0h+status,2+status,0+pclath+cstack]
  2242                           ;utoa@buf stored from wreg
  2243                           	line	22
  2244  0521  1283               	bcf	status, 5	;RP0=0, select bank0
  2245  0522  1303               	bcf	status, 6	;RP1=0, select bank0
  2246  0523  00A3               	movwf	(utoa@buf)
  2247                           	
  2248  0524                     l4763:	
  2249  0524  0879               	movf	(utoa@val+1),w
  2250  0525  01A1               	clrf	(utoa@v+1)
  2251  0526  07A1               	addwf	(utoa@v+1)
  2252  0527  0878               	movf	(utoa@val),w
  2253  0528  01A0               	clrf	(utoa@v)
  2254  0529  07A0               	addwf	(utoa@v)
  2255                           
  2256  052A  2D2B               	goto	l4765
  2257                           	line	23
  2258                           	
  2259  052B                     l2843:	
  2260                           	line	24
  2261                           	
  2262  052B                     l4765:	
  2263  052B  087B               	movf	(utoa@base+1),w
  2264  052C  01F1               	clrf	(?___lwdiv+1)
  2265  052D  07F1               	addwf	(?___lwdiv+1)
  2266  052E  087A               	movf	(utoa@base),w
  2267  052F  01F0               	clrf	(?___lwdiv)
  2268  0530  07F0               	addwf	(?___lwdiv)
  2269                           
  2270  0531  0821               	movf	(utoa@v+1),w
  2271  0532  01F3               	clrf	1+(?___lwdiv)+02h
  2272  0533  07F3               	addwf	1+(?___lwdiv)+02h
  2273  0534  0820               	movf	(utoa@v),w
  2274  0535  01F2               	clrf	0+(?___lwdiv)+02h
  2275  0536  07F2               	addwf	0+(?___lwdiv)+02h
  2276                           
  2277  0537  120A  118A  240A   	fcall	___lwdiv
              120A  118A         
  2278  053C  0871               	movf	(1+(?___lwdiv)),w
  2279  053D  1283               	bcf	status, 5	;RP0=0, select bank0
  2280  053E  1303               	bcf	status, 6	;RP1=0, select bank0
  2281  053F  01A1               	clrf	(utoa@v+1)
  2282  0540  07A1               	addwf	(utoa@v+1)
  2283  0541  0870               	movf	(0+(?___lwdiv)),w
  2284  0542  01A0               	clrf	(utoa@v)
  2285  0543  07A0               	addwf	(utoa@v)
  2286                           
  2287                           	line	25
  2288                           	
  2289  0544                     l4767:	
  2290  0544  3001               	movlw	(01h)
  2291  0545  00FC               	movwf	(??_utoa+0)+0
  2292  0546  087C               	movf	(??_utoa+0)+0,w
  2293  0547  07A3               	addwf	(utoa@buf),f
  2294                           	line	26
  2295                           	
  2296  0548                     l4769:	
  2297  0548  0821               	movf	((utoa@v+1)),w
  2298  0549  0420               	iorwf	((utoa@v)),w
  2299  054A  1D03               	skipz
  2300  054B  2D4D               	goto	u3201
  2301  054C  2D4E               	goto	u3200
  2302  054D                     u3201:
  2303  054D  2D2B               	goto	l4765
  2304  054E                     u3200:
  2305  054E  2D4F               	goto	l4771
  2306                           	
  2307  054F                     l2844:	
  2308                           	line	27
  2309                           	
  2310  054F                     l4771:	
  2311  054F  0823               	movf	(utoa@buf),w
  2312  0550  0084               	movwf	fsr0
  2313  0551  1383               	bcf	status, 7	;select IRP bank0
  2314  0552  0180               	clrf	indf
  2315                           	
  2316  0553                     l4773:	
  2317  0553  3001               	movlw	low(01h)
  2318  0554  02A3               	subwf	(utoa@buf),f
  2319  0555  2D56               	goto	l4775
  2320                           	line	28
  2321                           	
  2322  0556                     l2845:	
  2323                           	line	29
  2324                           	
  2325  0556                     l4775:	
  2326  0556  087B               	movf	(utoa@base+1),w
  2327  0557  01F1               	clrf	(?___lwmod+1)
  2328  0558  07F1               	addwf	(?___lwmod+1)
  2329  0559  087A               	movf	(utoa@base),w
  2330  055A  01F0               	clrf	(?___lwmod)
  2331  055B  07F0               	addwf	(?___lwmod)
  2332                           
  2333  055C  0879               	movf	(utoa@val+1),w
  2334  055D  01F3               	clrf	1+(?___lwmod)+02h
  2335  055E  07F3               	addwf	1+(?___lwmod)+02h
  2336  055F  0878               	movf	(utoa@val),w
  2337  0560  01F2               	clrf	0+(?___lwmod)+02h
  2338  0561  07F2               	addwf	0+(?___lwmod)+02h
  2339                           
  2340  0562  120A  118A  2336   	fcall	___lwmod
              120A  118A         
  2341  0567  0870               	movf	(0+(?___lwmod)),w
  2342  0568  00FC               	movwf	(??_utoa+0)+0
  2343  0569  087C               	movf	(??_utoa+0)+0,w
  2344  056A  1283               	bcf	status, 5	;RP0=0, select bank0
  2345  056B  1303               	bcf	status, 6	;RP1=0, select bank0
  2346  056C  00A2               	movwf	(utoa@c)
  2347                           	line	30
  2348                           	
  2349  056D                     l4777:	
  2350  056D  087B               	movf	(utoa@base+1),w
  2351  056E  01F1               	clrf	(?___lwdiv+1)
  2352  056F  07F1               	addwf	(?___lwdiv+1)
  2353  0570  087A               	movf	(utoa@base),w
  2354  0571  01F0               	clrf	(?___lwdiv)
  2355  0572  07F0               	addwf	(?___lwdiv)
  2356                           
  2357  0573  0879               	movf	(utoa@val+1),w
  2358  0574  01F3               	clrf	1+(?___lwdiv)+02h
  2359  0575  07F3               	addwf	1+(?___lwdiv)+02h
  2360  0576  0878               	movf	(utoa@val),w
  2361  0577  01F2               	clrf	0+(?___lwdiv)+02h
  2362  0578  07F2               	addwf	0+(?___lwdiv)+02h
  2363                           
  2364  0579  120A  118A  240A   	fcall	___lwdiv
              120A  118A         
  2365  057E  0871               	movf	(1+(?___lwdiv)),w
  2366  057F  01F9               	clrf	(utoa@val+1)
  2367  0580  07F9               	addwf	(utoa@val+1)
  2368  0581  0870               	movf	(0+(?___lwdiv)),w
  2369  0582  01F8               	clrf	(utoa@val)
  2370  0583  07F8               	addwf	(utoa@val)
  2371                           
  2372                           	line	31
  2373                           	
  2374  0584                     l4779:	
  2375  0584  300A               	movlw	(0Ah)
  2376  0585  1283               	bcf	status, 5	;RP0=0, select bank0
  2377  0586  1303               	bcf	status, 6	;RP1=0, select bank0
  2378  0587  0222               	subwf	(utoa@c),w
  2379  0588  1C03               	skipc
  2380  0589  2D8B               	goto	u3211
  2381  058A  2D8C               	goto	u3210
  2382  058B                     u3211:
  2383  058B  2D90               	goto	l2846
  2384  058C                     u3210:
  2385                           	line	32
  2386                           	
  2387  058C                     l4781:	
  2388  058C  3007               	movlw	(07h)
  2389  058D  00FC               	movwf	(??_utoa+0)+0
  2390  058E  087C               	movf	(??_utoa+0)+0,w
  2391  058F  07A2               	addwf	(utoa@c),f
  2392                           	
  2393  0590                     l2846:	
  2394                           	line	33
  2395  0590  3030               	movlw	(030h)
  2396  0591  00FC               	movwf	(??_utoa+0)+0
  2397  0592  087C               	movf	(??_utoa+0)+0,w
  2398  0593  07A2               	addwf	(utoa@c),f
  2399                           	line	34
  2400                           	
  2401  0594                     l4783:	
  2402  0594  0822               	movf	(utoa@c),w
  2403  0595  00FC               	movwf	(??_utoa+0)+0
  2404  0596  0823               	movf	(utoa@buf),w
  2405  0597  0084               	movwf	fsr0
  2406  0598  087C               	movf	(??_utoa+0)+0,w
  2407  0599  1383               	bcf	status, 7	;select IRP bank0
  2408  059A  0080               	movwf	indf
  2409                           	
  2410  059B                     l4785:	
  2411  059B  3001               	movlw	low(01h)
  2412  059C  02A3               	subwf	(utoa@buf),f
  2413                           	line	35
  2414                           	
  2415  059D                     l4787:	
  2416  059D  0879               	movf	((utoa@val+1)),w
  2417  059E  0478               	iorwf	((utoa@val)),w
  2418  059F  1D03               	skipz
  2419  05A0  2DA2               	goto	u3221
  2420  05A1  2DA3               	goto	u3220
  2421  05A2                     u3221:
  2422  05A2  2D56               	goto	l4775
  2423  05A3                     u3220:
  2424  05A3  2DA4               	goto	l2848
  2425                           	
  2426  05A4                     l2847:	
  2427                           	line	37
  2428                           ;	Return value of _utoa is never used
  2429                           	
  2430  05A4                     l2848:	
  2431  05A4  0008               	return
  2432                           	opt stack 0
  2433                           GLOBAL	__end_of_utoa
  2434  05A5                     	__end_of_utoa:
  2435 ;; =============== function _utoa ends ============
  2436                           
  2437                           	signat	_utoa,12409
  2438                           	global	_read_adc
  2439                           psect	text427,local,class=CODE,delta=2
  2440                           global __ptext427
  2441  02F9                     __ptext427:
  2442                           
  2443 ;; *************** function _read_adc *****************
  2444 ;; Defined at:
  2445 ;;		line 16 in file "F:\Prolific\pic_s\pic_pgm\12.2 adc lm35(temp)_10bit - Copy\program\my_adc.c"
  2446 ;; Parameters:    Size  Location     Type
  2447 ;;  channel         1    wreg     unsigned char 
  2448 ;; Auto vars:     Size  Location     Type
  2449 ;;  channel         1   10[COMMON] unsigned char 
  2450 ;;  adc_value       2   11[COMMON] unsigned int 
  2451 ;; Return value:  Size  Location     Type
  2452 ;;                  2    4[COMMON] unsigned int 
  2453 ;; Registers used:
  2454 ;;		wreg, status,2, status,0, pclath, cstack
  2455 ;; Tracked objects:
  2456 ;;		On entry : 0/0
  2457 ;;		On exit  : 0/0
  2458 ;;		Unchanged: 0/0
  2459 ;; Data sizes:     COMMON   BANK0   BANK1   BANK3   BANK2
  2460 ;;      Params:         2       0       0       0       0
  2461 ;;      Locals:         3       0       0       0       0
  2462 ;;      Temps:          4       0       0       0       0
  2463 ;;      Totals:         9       0       0       0       0
  2464 ;;Total ram usage:        9 bytes
  2465 ;; Hardware stack levels used:    1
  2466 ;; Hardware stack levels required when called:    1
  2467 ;; This function calls:
  2468 ;;		_DelayMs
  2469 ;; This function is called by:
  2470 ;;		_main
  2471 ;; This function uses a non-reentrant model
  2472 ;;
  2473                           psect	text427
  2474                           	file	"F:\Prolific\pic_s\pic_pgm\12.2 adc lm35(temp)_10bit - Copy\program\my_adc.c"
  2475                           	line	16
  2476                           	global	__size_of_read_adc
  2477  003D                     	__size_of_read_adc	equ	__end_of_read_adc-_read_adc
  2478                           	
  2479  02F9                     _read_adc:	
  2480                           	opt	stack 6
  2481                           ; Regs used in _read_adc: [wreg+status,2+status,0+pclath+cstack]
  2482                           ;read_adc@channel stored from wreg
  2483  02F9  00FA               	movwf	(read_adc@channel)
  2484                           	line	17
  2485                           	
  2486  02FA                     l4749:	
  2487                           ;my_adc.c: 17: unsigned int adc_value=0;
  2488  02FA  01FB               	clrf	(read_adc@adc_value)
  2489  02FB  01FC               	clrf	(read_adc@adc_value+1)
  2490                           	line	18
  2491                           	
  2492  02FC                     l4751:	
  2493                           ;my_adc.c: 18: ADCON0 = ADCON0|(channel << 3);
  2494  02FC  087A               	movf	(read_adc@channel),w
  2495  02FD  00F6               	movwf	(??_read_adc+0)+0
  2496  02FE  3002               	movlw	(03h)-1
  2497  02FF                     u3185:
  2498  02FF  1003               	clrc
  2499  0300  0DF6               	rlf	(??_read_adc+0)+0,f
  2500  0301  3EFF               	addlw	-1
  2501  0302  1D03               	skipz
  2502  0303  2AFF               	goto	u3185
  2503  0304  1003               	clrc
  2504  0305  0D76               	rlf	(??_read_adc+0)+0,w
  2505  0306  1283               	bcf	status, 5	;RP0=0, select bank0
  2506  0307  1303               	bcf	status, 6	;RP1=0, select bank0
  2507  0308  041F               	iorwf	(31),w	;volatile
  2508  0309  009F               	movwf	(31)	;volatile
  2509                           	line	19
  2510                           	
  2511  030A                     l4753:	
  2512                           ;my_adc.c: 19: DelayMs(50);
  2513  030A  3032               	movlw	(032h)
  2514  030B  120A  118A  227D   	fcall	_DelayMs
              120A  118A         
  2515                           	line	20
  2516                           	
  2517  0310                     l4755:	
  2518                           ;my_adc.c: 20: GO = 1;
  2519  0310  1283               	bcf	status, 5	;RP0=0, select bank0
  2520  0311  1303               	bcf	status, 6	;RP1=0, select bank0
  2521  0312  151F               	bsf	(250/8),(250)&7
  2522                           	line	21
  2523                           ;my_adc.c: 21: while(GO);
  2524  0313  2B14               	goto	l2157
  2525                           	
  2526  0314                     l2158:	
  2527                           	
  2528  0314                     l2157:	
  2529  0314  191F               	btfsc	(250/8),(250)&7
  2530  0315  2B17               	goto	u3191
  2531  0316  2B18               	goto	u3190
  2532  0317                     u3191:
  2533  0317  2B14               	goto	l2157
  2534  0318                     u3190:
  2535  0318  2B19               	goto	l4757
  2536                           	
  2537  0319                     l2159:	
  2538                           	line	22
  2539                           	
  2540  0319                     l4757:	
  2541                           ;my_adc.c: 22: adc_value = ADRESH;
  2542  0319  081E               	movf	(30),w	;volatile
  2543  031A  00F6               	movwf	(??_read_adc+0)+0
  2544  031B  01F7               	clrf	(??_read_adc+0)+0+1
  2545  031C  0876               	movf	0+(??_read_adc+0)+0,w
  2546  031D  00FB               	movwf	(read_adc@adc_value)
  2547  031E  0877               	movf	1+(??_read_adc+0)+0,w
  2548  031F  00FC               	movwf	(read_adc@adc_value+1)
  2549                           	line	23
  2550                           ;my_adc.c: 23: adc_value = (adc_value << 8) | ADRESL;
  2551  0320  1683               	bsf	status, 5	;RP0=1, select bank1
  2552  0321  1303               	bcf	status, 6	;RP1=0, select bank1
  2553  0322  081E               	movf	(158)^080h,w	;volatile
  2554  0323  00F6               	movwf	(??_read_adc+0)+0
  2555  0324  01F7               	clrf	(??_read_adc+0)+0+1
  2556  0325  087B               	movf	(read_adc@adc_value),w
  2557  0326  00F9               	movwf	(??_read_adc+2)+0+1
  2558  0327  01F8               	clrf	(??_read_adc+2)+0
  2559  0328  0876               	movf	0+(??_read_adc+0)+0,w
  2560  0329  0478               	iorwf	0+(??_read_adc+2)+0,w
  2561  032A  00FB               	movwf	(read_adc@adc_value)
  2562  032B  0877               	movf	1+(??_read_adc+0)+0,w
  2563  032C  0479               	iorwf	1+(??_read_adc+2)+0,w
  2564  032D  00FC               	movwf	1+(read_adc@adc_value)
  2565                           	line	24
  2566                           	
  2567  032E                     l4759:	
  2568                           ;my_adc.c: 24: return(adc_value);
  2569  032E  087C               	movf	(read_adc@adc_value+1),w
  2570  032F  01F5               	clrf	(?_read_adc+1)
  2571  0330  07F5               	addwf	(?_read_adc+1)
  2572  0331  087B               	movf	(read_adc@adc_value),w
  2573  0332  01F4               	clrf	(?_read_adc)
  2574  0333  07F4               	addwf	(?_read_adc)
  2575                           
  2576  0334  2B35               	goto	l2160
  2577                           	
  2578  0335                     l4761:	
  2579                           	line	26
  2580                           	
  2581  0335                     l2160:	
  2582  0335  0008               	return
  2583                           	opt stack 0
  2584                           GLOBAL	__end_of_read_adc
  2585  0336                     	__end_of_read_adc:
  2586 ;; =============== function _read_adc ends ============
  2587                           
  2588                           	signat	_read_adc,4218
  2589                           	global	_LCD_STROBE
  2590                           psect	text428,local,class=CODE,delta=2
  2591                           global __ptext428
  2592  023F                     __ptext428:
  2593                           
  2594 ;; *************** function _LCD_STROBE *****************
  2595 ;; Defined at:
  2596 ;;		line 32 in file "F:\Prolific\pic_s\pic_pgm\12.2 adc lm35(temp)_10bit - Copy\program\lcd.c"
  2597 ;; Parameters:    Size  Location     Type
  2598 ;;		None
  2599 ;; Auto vars:     Size  Location     Type
  2600 ;;		None
  2601 ;; Return value:  Size  Location     Type
  2602 ;;		None               void
  2603 ;; Registers used:
  2604 ;;		wreg
  2605 ;; Tracked objects:
  2606 ;;		On entry : 0/0
  2607 ;;		On exit  : 0/0
  2608 ;;		Unchanged: 0/0
  2609 ;; Data sizes:     COMMON   BANK0   BANK1   BANK3   BANK2
  2610 ;;      Params:         0       0       0       0       0
  2611 ;;      Locals:         0       0       0       0       0
  2612 ;;      Temps:          2       0       0       0       0
  2613 ;;      Totals:         2       0       0       0       0
  2614 ;;Total ram usage:        2 bytes
  2615 ;; Hardware stack levels used:    1
  2616 ;; This function calls:
  2617 ;;		Nothing
  2618 ;; This function is called by:
  2619 ;;		_lcd_init
  2620 ;;		_send
  2621 ;; This function uses a non-reentrant model
  2622 ;;
  2623                           psect	text428
  2624                           	file	"F:\Prolific\pic_s\pic_pgm\12.2 adc lm35(temp)_10bit - Copy\program\lcd.c"
  2625                           	line	32
  2626                           	global	__size_of_LCD_STROBE
  2627  0010                     	__size_of_LCD_STROBE	equ	__end_of_LCD_STROBE-_LCD_STROBE
  2628                           	
  2629  023F                     _LCD_STROBE:	
  2630                           	opt	stack 5
  2631                           ; Regs used in _LCD_STROBE: [wreg]
  2632                           	line	33
  2633                           	
  2634  023F                     l4743:	
  2635                           ;lcd.c: 33: RD3=1;
  2636  023F  1283               	bcf	status, 5	;RP0=0, select bank0
  2637  0240  1303               	bcf	status, 6	;RP1=0, select bank0
  2638  0241  1588               	bsf	(67/8),(67)&7
  2639                           	line	34
  2640                           	
  2641  0242                     l4745:	
  2642                           ;lcd.c: 34: _delay((unsigned long)((2)*(20000000/4000.0)));
  2643                           	opt asmopt_off
  2644  0242  300D               movlw	13
  2645  0243  00F1               movwf	((??_LCD_STROBE+0)+0+1),f
  2646  0244  30FB               	movlw	251
  2647  0245  00F0               movwf	((??_LCD_STROBE+0)+0),f
  2648  0246                     u3437:
  2649  0246  0BF0               	decfsz	((??_LCD_STROBE+0)+0),f
  2650  0247  2A46               	goto	u3437
  2651  0248  0BF1               	decfsz	((??_LCD_STROBE+0)+0+1),f
  2652  0249  2A46               	goto	u3437
  2653  024A  2A4B               	nop2
  2654                           opt asmopt_on
  2655                           
  2656                           	line	35
  2657                           	
  2658  024B                     l4747:	
  2659                           ;lcd.c: 35: RD3=0;
  2660  024B  1283               	bcf	status, 5	;RP0=0, select bank0
  2661  024C  1303               	bcf	status, 6	;RP1=0, select bank0
  2662  024D  1188               	bcf	(67/8),(67)&7
  2663                           	line	36
  2664                           	
  2665  024E                     l712:	
  2666  024E  0008               	return
  2667                           	opt stack 0
  2668                           GLOBAL	__end_of_LCD_STROBE
  2669  024F                     	__end_of_LCD_STROBE:
  2670 ;; =============== function _LCD_STROBE ends ============
  2671                           
  2672                           	signat	_LCD_STROBE,88
  2673                           	global	___fttol
  2674                           psect	text429,local,class=CODE,delta=2
  2675                           global __ptext429
  2676  05A5                     __ptext429:
  2677                           
  2678 ;; *************** function ___fttol *****************
  2679 ;; Defined at:
  2680 ;;		line 45 in file "C:\Program Files (x86)\HI-TECH Software\PICC\9.82\sources\fttol.c"
  2681 ;; Parameters:    Size  Location     Type
  2682 ;;  f1              3    8[COMMON] float 
  2683 ;; Auto vars:     Size  Location     Type
  2684 ;;  lval            4    5[BANK0 ] unsigned long 
  2685 ;;  exp1            1    9[BANK0 ] unsigned char 
  2686 ;;  sign1           1    4[BANK0 ] unsigned char 
  2687 ;; Return value:  Size  Location     Type
  2688 ;;                  4    8[COMMON] long 
  2689 ;; Registers used:
  2690 ;;		wreg, status,2, status,0
  2691 ;; Tracked objects:
  2692 ;;		On entry : 0/0
  2693 ;;		On exit  : 0/0
  2694 ;;		Unchanged: 0/0
  2695 ;; Data sizes:     COMMON   BANK0   BANK1   BANK3   BANK2
  2696 ;;      Params:         4       0       0       0       0
  2697 ;;      Locals:         0       6       0       0       0
  2698 ;;      Temps:          0       4       0       0       0
  2699 ;;      Totals:         4      10       0       0       0
  2700 ;;Total ram usage:       14 bytes
  2701 ;; Hardware stack levels used:    1
  2702 ;; This function calls:
  2703 ;;		Nothing
  2704 ;; This function is called by:
  2705 ;;		_main
  2706 ;; This function uses a non-reentrant model
  2707 ;;
  2708                           psect	text429
  2709                           	file	"C:\Program Files (x86)\HI-TECH Software\PICC\9.82\sources\fttol.c"
  2710                           	line	45
  2711                           	global	__size_of___fttol
  2712  00A6                     	__size_of___fttol	equ	__end_of___fttol-___fttol
  2713                           	
  2714  05A5                     ___fttol:	
  2715                           	opt	stack 7
  2716                           ; Regs used in ___fttol: [wreg+status,2+status,0]
  2717                           	line	49
  2718                           	
  2719  05A5                     l4637:	
  2720  05A5  0878               	movf	(___fttol@f1),w
  2721  05A6  1283               	bcf	status, 5	;RP0=0, select bank0
  2722  05A7  1303               	bcf	status, 6	;RP1=0, select bank0
  2723  05A8  00A0               	movwf	((??___fttol+0)+0)
  2724  05A9  0879               	movf	(___fttol@f1+1),w
  2725  05AA  00A1               	movwf	((??___fttol+0)+0+1)
  2726  05AB  087A               	movf	(___fttol@f1+2),w
  2727  05AC  00A2               	movwf	((??___fttol+0)+0+2)
  2728  05AD  1003               	clrc
  2729  05AE  0D21               	rlf	(??___fttol+0)+1,w
  2730  05AF  0D22               	rlf	(??___fttol+0)+2,w
  2731  05B0  00A3               	movwf	(??___fttol+3)+0
  2732  05B1  0823               	movf	(??___fttol+3)+0,w
  2733  05B2  00A9               	movwf	(___fttol@exp1)
  2734  05B3  08A9               	movf	((___fttol@exp1)),f
  2735  05B4  1D03               	skipz
  2736  05B5  2DB7               	goto	u3001
  2737  05B6  2DB8               	goto	u3000
  2738  05B7                     u3001:
  2739  05B7  2DC2               	goto	l4643
  2740  05B8                     u3000:
  2741                           	line	50
  2742                           	
  2743  05B8                     l4639:	
  2744  05B8  3000               	movlw	0
  2745  05B9  00FB               	movwf	(?___fttol+3)
  2746  05BA  3000               	movlw	0
  2747  05BB  00FA               	movwf	(?___fttol+2)
  2748  05BC  3000               	movlw	0
  2749  05BD  00F9               	movwf	(?___fttol+1)
  2750  05BE  3000               	movlw	0
  2751  05BF  00F8               	movwf	(?___fttol)
  2752                           
  2753  05C0  2E4A               	goto	l2967
  2754                           	
  2755  05C1                     l4641:	
  2756  05C1  2E4A               	goto	l2967
  2757                           	
  2758  05C2                     l2966:	
  2759                           	line	51
  2760                           	
  2761  05C2                     l4643:	
  2762  05C2  0878               	movf	(___fttol@f1),w
  2763  05C3  00A0               	movwf	((??___fttol+0)+0)
  2764  05C4  0879               	movf	(___fttol@f1+1),w
  2765  05C5  00A1               	movwf	((??___fttol+0)+0+1)
  2766  05C6  087A               	movf	(___fttol@f1+2),w
  2767  05C7  00A2               	movwf	((??___fttol+0)+0+2)
  2768  05C8  3017               	movlw	017h
  2769  05C9                     u3015:
  2770  05C9  1003               	clrc
  2771  05CA  0CA2               	rrf	(??___fttol+0)+2,f
  2772  05CB  0CA1               	rrf	(??___fttol+0)+1,f
  2773  05CC  0CA0               	rrf	(??___fttol+0)+0,f
  2774  05CD                     u3010:
  2775  05CD  3EFF               	addlw	-1
  2776  05CE  1D03               	skipz
  2777  05CF  2DC9               	goto	u3015
  2778  05D0  0820               	movf	0+(??___fttol+0)+0,w
  2779  05D1  00A3               	movwf	(??___fttol+3)+0
  2780  05D2  0823               	movf	(??___fttol+3)+0,w
  2781  05D3  00A4               	movwf	(___fttol@sign1)
  2782                           	line	52
  2783                           	
  2784  05D4                     l4645:	
  2785  05D4  17F9               	bsf	(___fttol@f1)+(15/8),(15)&7
  2786                           	line	53
  2787                           	
  2788  05D5                     l4647:	
  2789  05D5  30FF               	movlw	0FFh
  2790  05D6  05F8               	andwf	(___fttol@f1),f
  2791  05D7  30FF               	movlw	0FFh
  2792  05D8  05F9               	andwf	(___fttol@f1+1),f
  2793  05D9  3000               	movlw	0
  2794  05DA  05FA               	andwf	(___fttol@f1+2),f
  2795                           	line	54
  2796                           	
  2797  05DB                     l4649:	
  2798  05DB  0878               	movf	(___fttol@f1),w
  2799  05DC  00A5               	movwf	(___fttol@lval)
  2800  05DD  0879               	movf	(___fttol@f1+1),w
  2801  05DE  00A6               	movwf	((___fttol@lval))+1
  2802  05DF  087A               	movf	(___fttol@f1+2),w
  2803  05E0  00A7               	movwf	((___fttol@lval))+2
  2804  05E1  01A8               	clrf	((___fttol@lval))+3
  2805                           	line	55
  2806                           	
  2807  05E2                     l4651:	
  2808  05E2  308E               	movlw	low(08Eh)
  2809  05E3  02A9               	subwf	(___fttol@exp1),f
  2810                           	line	56
  2811                           	
  2812  05E4                     l4653:	
  2813  05E4  1FA9               	btfss	(___fttol@exp1),7
  2814  05E5  2DE7               	goto	u3021
  2815  05E6  2DE8               	goto	u3020
  2816  05E7                     u3021:
  2817  05E7  2E0D               	goto	l4663
  2818  05E8                     u3020:
  2819                           	line	57
  2820                           	
  2821  05E8                     l4655:	
  2822  05E8  0829               	movf	(___fttol@exp1),w
  2823  05E9  3A80               	xorlw	80h
  2824  05EA  3E8F               	addlw	-((-15)^80h)
  2825  05EB  1803               	skipnc
  2826  05EC  2DEE               	goto	u3031
  2827  05ED  2DEF               	goto	u3030
  2828  05EE                     u3031:
  2829  05EE  2DFA               	goto	l4661
  2830  05EF                     u3030:
  2831                           	line	58
  2832                           	
  2833  05EF                     l4657:	
  2834  05EF  3000               	movlw	0
  2835  05F0  00FB               	movwf	(?___fttol+3)
  2836  05F1  3000               	movlw	0
  2837  05F2  00FA               	movwf	(?___fttol+2)
  2838  05F3  3000               	movlw	0
  2839  05F4  00F9               	movwf	(?___fttol+1)
  2840  05F5  3000               	movlw	0
  2841  05F6  00F8               	movwf	(?___fttol)
  2842                           
  2843  05F7  2E4A               	goto	l2967
  2844                           	
  2845  05F8                     l4659:	
  2846  05F8  2E4A               	goto	l2967
  2847                           	
  2848  05F9                     l2969:	
  2849  05F9  2DFA               	goto	l4661
  2850                           	line	59
  2851                           	
  2852  05FA                     l2970:	
  2853                           	line	60
  2854                           	
  2855  05FA                     l4661:	
  2856  05FA  3001               	movlw	01h
  2857  05FB                     u3045:
  2858  05FB  1003               	clrc
  2859  05FC  0CA8               	rrf	(___fttol@lval+3),f
  2860  05FD  0CA7               	rrf	(___fttol@lval+2),f
  2861  05FE  0CA6               	rrf	(___fttol@lval+1),f
  2862  05FF  0CA5               	rrf	(___fttol@lval),f
  2863  0600  3EFF               	addlw	-1
  2864  0601  1D03               	skipz
  2865  0602  2DFB               	goto	u3045
  2866                           
  2867                           	line	61
  2868  0603  3001               	movlw	(01h)
  2869  0604  00A0               	movwf	(??___fttol+0)+0
  2870  0605  0820               	movf	(??___fttol+0)+0,w
  2871  0606  07A9               	addwf	(___fttol@exp1),f
  2872  0607  1D03               	btfss	status,2
  2873  0608  2E0A               	goto	u3051
  2874  0609  2E0B               	goto	u3050
  2875  060A                     u3051:
  2876  060A  2DFA               	goto	l4661
  2877  060B                     u3050:
  2878  060B  2E31               	goto	l4673
  2879                           	
  2880  060C                     l2971:	
  2881                           	line	62
  2882  060C  2E31               	goto	l4673
  2883                           	
  2884  060D                     l2968:	
  2885                           	line	63
  2886                           	
  2887  060D                     l4663:	
  2888  060D  3018               	movlw	(018h)
  2889  060E  0229               	subwf	(___fttol@exp1),w
  2890  060F  1C03               	skipc
  2891  0610  2E12               	goto	u3061
  2892  0611  2E13               	goto	u3060
  2893  0612                     u3061:
  2894  0612  2E2A               	goto	l4671
  2895  0613                     u3060:
  2896                           	line	64
  2897                           	
  2898  0613                     l4665:	
  2899  0613  3000               	movlw	0
  2900  0614  00FB               	movwf	(?___fttol+3)
  2901  0615  3000               	movlw	0
  2902  0616  00FA               	movwf	(?___fttol+2)
  2903  0617  3000               	movlw	0
  2904  0618  00F9               	movwf	(?___fttol+1)
  2905  0619  3000               	movlw	0
  2906  061A  00F8               	movwf	(?___fttol)
  2907                           
  2908  061B  2E4A               	goto	l2967
  2909                           	
  2910  061C                     l4667:	
  2911  061C  2E4A               	goto	l2967
  2912                           	
  2913  061D                     l2973:	
  2914                           	line	65
  2915  061D  2E2A               	goto	l4671
  2916                           	
  2917  061E                     l2975:	
  2918                           	line	66
  2919                           	
  2920  061E                     l4669:	
  2921  061E  3001               	movlw	01h
  2922  061F  00A0               	movwf	(??___fttol+0)+0
  2923  0620                     u3075:
  2924  0620  1003               	clrc
  2925  0621  0DA5               	rlf	(___fttol@lval),f
  2926  0622  0DA6               	rlf	(___fttol@lval+1),f
  2927  0623  0DA7               	rlf	(___fttol@lval+2),f
  2928  0624  0DA8               	rlf	(___fttol@lval+3),f
  2929  0625  0BA0               	decfsz	(??___fttol+0)+0
  2930  0626  2E20               	goto	u3075
  2931                           	line	67
  2932  0627  3001               	movlw	low(01h)
  2933  0628  02A9               	subwf	(___fttol@exp1),f
  2934  0629  2E2A               	goto	l4671
  2935                           	line	68
  2936                           	
  2937  062A                     l2974:	
  2938                           	line	65
  2939                           	
  2940  062A                     l4671:	
  2941  062A  08A9               	movf	(___fttol@exp1),f
  2942  062B  1D03               	skipz
  2943  062C  2E2E               	goto	u3081
  2944  062D  2E2F               	goto	u3080
  2945  062E                     u3081:
  2946  062E  2E1E               	goto	l4669
  2947  062F                     u3080:
  2948  062F  2E31               	goto	l4673
  2949                           	
  2950  0630                     l2976:	
  2951  0630  2E31               	goto	l4673
  2952                           	line	69
  2953                           	
  2954  0631                     l2972:	
  2955                           	line	70
  2956                           	
  2957  0631                     l4673:	
  2958  0631  0824               	movf	(___fttol@sign1),w
  2959  0632  1D03               	skipz
  2960  0633  2E35               	goto	u3090
  2961  0634  2E41               	goto	l4677
  2962  0635                     u3090:
  2963                           	line	71
  2964                           	
  2965  0635                     l4675:	
  2966  0635  09A5               	comf	(___fttol@lval),f
  2967  0636  09A6               	comf	(___fttol@lval+1),f
  2968  0637  09A7               	comf	(___fttol@lval+2),f
  2969  0638  09A8               	comf	(___fttol@lval+3),f
  2970  0639  0AA5               	incf	(___fttol@lval),f
  2971  063A  1903               	skipnz
  2972  063B  0AA6               	incf	(___fttol@lval+1),f
  2973  063C  1903               	skipnz
  2974  063D  0AA7               	incf	(___fttol@lval+2),f
  2975  063E  1903               	skipnz
  2976  063F  0AA8               	incf	(___fttol@lval+3),f
  2977  0640  2E41               	goto	l4677
  2978                           	
  2979  0641                     l2977:	
  2980                           	line	72
  2981                           	
  2982  0641                     l4677:	
  2983  0641  0828               	movf	(___fttol@lval+3),w
  2984  0642  00FB               	movwf	(?___fttol+3)
  2985  0643  0827               	movf	(___fttol@lval+2),w
  2986  0644  00FA               	movwf	(?___fttol+2)
  2987  0645  0826               	movf	(___fttol@lval+1),w
  2988  0646  00F9               	movwf	(?___fttol+1)
  2989  0647  0825               	movf	(___fttol@lval),w
  2990  0648  00F8               	movwf	(?___fttol)
  2991                           
  2992  0649  2E4A               	goto	l2967
  2993                           	
  2994  064A                     l4679:	
  2995                           	line	73
  2996                           	
  2997  064A                     l2967:	
  2998  064A  0008               	return
  2999                           	opt stack 0
  3000                           GLOBAL	__end_of___fttol
  3001  064B                     	__end_of___fttol:
  3002 ;; =============== function ___fttol ends ============
  3003                           
  3004                           	signat	___fttol,4220
  3005                           	global	___ftpack
  3006                           psect	text430,local,class=CODE,delta=2
  3007                           global __ptext430
  3008  04A6                     __ptext430:
  3009                           
  3010 ;; *************** function ___ftpack *****************
  3011 ;; Defined at:
  3012 ;;		line 63 in file "C:\Program Files (x86)\HI-TECH Software\PICC\9.82\sources\float.c"
  3013 ;; Parameters:    Size  Location     Type
  3014 ;;  arg             3    0[COMMON] unsigned um
  3015 ;;  exp             1    3[COMMON] unsigned char 
  3016 ;;  sign            1    4[COMMON] unsigned char 
  3017 ;; Auto vars:     Size  Location     Type
  3018 ;;		None
  3019 ;; Return value:  Size  Location     Type
  3020 ;;                  3    0[COMMON] float 
  3021 ;; Registers used:
  3022 ;;		wreg, status,2, status,0
  3023 ;; Tracked objects:
  3024 ;;		On entry : 0/0
  3025 ;;		On exit  : 0/0
  3026 ;;		Unchanged: 0/0
  3027 ;; Data sizes:     COMMON   BANK0   BANK1   BANK3   BANK2
  3028 ;;      Params:         5       0       0       0       0
  3029 ;;      Locals:         0       0       0       0       0
  3030 ;;      Temps:          3       0       0       0       0
  3031 ;;      Totals:         8       0       0       0       0
  3032 ;;Total ram usage:        8 bytes
  3033 ;; Hardware stack levels used:    1
  3034 ;; This function calls:
  3035 ;;		Nothing
  3036 ;; This function is called by:
  3037 ;;		___ftmul
  3038 ;;		___lwtoft
  3039 ;;		___ftadd
  3040 ;;		___ftdiv
  3041 ;;		___lbtoft
  3042 ;;		___abtoft
  3043 ;;		___awtoft
  3044 ;;		___altoft
  3045 ;;		___lltoft
  3046 ;;		___attoft
  3047 ;;		___lttoft
  3048 ;; This function uses a non-reentrant model
  3049 ;;
  3050                           psect	text430
  3051                           	file	"C:\Program Files (x86)\HI-TECH Software\PICC\9.82\sources\float.c"
  3052                           	line	63
  3053                           	global	__size_of___ftpack
  3054  007B                     	__size_of___ftpack	equ	__end_of___ftpack-___ftpack
  3055                           	
  3056  04A6                     ___ftpack:	
  3057                           	opt	stack 6
  3058                           ; Regs used in ___ftpack: [wreg+status,2+status,0]
  3059                           	line	64
  3060                           	
  3061  04A6                     l4563:	
  3062  04A6  0873               	movf	(___ftpack@exp),w
  3063  04A7  1D03               	skipz
  3064  04A8  2CAA               	goto	u2810
  3065  04A9  2CB2               	goto	l4567
  3066  04AA                     u2810:
  3067                           	
  3068  04AA                     l4565:	
  3069  04AA  0872               	movf	(___ftpack@arg+2),w
  3070  04AB  0471               	iorwf	(___ftpack@arg+1),w
  3071  04AC  0470               	iorwf	(___ftpack@arg),w
  3072  04AD  1D03               	skipz
  3073  04AE  2CB0               	goto	u2821
  3074  04AF  2CB1               	goto	u2820
  3075  04B0                     u2821:
  3076  04B0  2CC8               	goto	l4573
  3077  04B1                     u2820:
  3078  04B1  2CB2               	goto	l4567
  3079                           	
  3080  04B2                     l3191:	
  3081                           	line	65
  3082                           	
  3083  04B2                     l4567:	
  3084  04B2  3000               	movlw	0x0
  3085  04B3  00F0               	movwf	(?___ftpack)
  3086  04B4  3000               	movlw	0x0
  3087  04B5  00F1               	movwf	(?___ftpack+1)
  3088  04B6  3000               	movlw	0x0
  3089  04B7  00F2               	movwf	(?___ftpack+2)
  3090  04B8  2D20               	goto	l3192
  3091                           	
  3092  04B9                     l4569:	
  3093  04B9  2D20               	goto	l3192
  3094                           	
  3095  04BA                     l3189:	
  3096                           	line	66
  3097  04BA  2CC8               	goto	l4573
  3098                           	
  3099  04BB                     l3194:	
  3100                           	line	67
  3101                           	
  3102  04BB                     l4571:	
  3103  04BB  3001               	movlw	(01h)
  3104  04BC  00F5               	movwf	(??___ftpack+0)+0
  3105  04BD  0875               	movf	(??___ftpack+0)+0,w
  3106  04BE  07F3               	addwf	(___ftpack@exp),f
  3107                           	line	68
  3108  04BF  3001               	movlw	01h
  3109  04C0                     u2835:
  3110  04C0  1003               	clrc
  3111  04C1  0CF2               	rrf	(___ftpack@arg+2),f
  3112  04C2  0CF1               	rrf	(___ftpack@arg+1),f
  3113  04C3  0CF0               	rrf	(___ftpack@arg),f
  3114  04C4  3EFF               	addlw	-1
  3115  04C5  1D03               	skipz
  3116  04C6  2CC0               	goto	u2835
  3117                           
  3118  04C7  2CC8               	goto	l4573
  3119                           	line	69
  3120                           	
  3121  04C8                     l3193:	
  3122                           	line	66
  3123                           	
  3124  04C8                     l4573:	
  3125  04C8  30FE               	movlw	low highword(0FE0000h)
  3126  04C9  0572               	andwf	(___ftpack@arg+2),w
  3127  04CA  1D03               	btfss	status,2
  3128  04CB  2CCD               	goto	u2841
  3129  04CC  2CCE               	goto	u2840
  3130  04CD                     u2841:
  3131  04CD  2CBB               	goto	l4571
  3132  04CE                     u2840:
  3133  04CE  2CE6               	goto	l3196
  3134                           	
  3135  04CF                     l3195:	
  3136                           	line	70
  3137  04CF  2CE6               	goto	l3196
  3138                           	
  3139  04D0                     l3197:	
  3140                           	line	71
  3141                           	
  3142  04D0                     l4575:	
  3143  04D0  3001               	movlw	(01h)
  3144  04D1  00F5               	movwf	(??___ftpack+0)+0
  3145  04D2  0875               	movf	(??___ftpack+0)+0,w
  3146  04D3  07F3               	addwf	(___ftpack@exp),f
  3147                           	line	72
  3148                           	
  3149  04D4                     l4577:	
  3150  04D4  3001               	movlw	01h
  3151  04D5  07F0               	addwf	(___ftpack@arg),f
  3152  04D6  3000               	movlw	0
  3153  04D7  1803               	skipnc
  3154  04D8  3001               movlw 1
  3155  04D9  07F1               	addwf	(___ftpack@arg+1),f
  3156  04DA  3000               	movlw	0
  3157  04DB  1803               	skipnc
  3158  04DC  3001               movlw 1
  3159  04DD  07F2               	addwf	(___ftpack@arg+2),f
  3160                           	line	73
  3161                           	
  3162  04DE                     l4579:	
  3163  04DE  3001               	movlw	01h
  3164  04DF                     u2855:
  3165  04DF  1003               	clrc
  3166  04E0  0CF2               	rrf	(___ftpack@arg+2),f
  3167  04E1  0CF1               	rrf	(___ftpack@arg+1),f
  3168  04E2  0CF0               	rrf	(___ftpack@arg),f
  3169  04E3  3EFF               	addlw	-1
  3170  04E4  1D03               	skipz
  3171  04E5  2CDF               	goto	u2855
  3172                           
  3173                           	line	74
  3174                           	
  3175  04E6                     l3196:	
  3176                           	line	70
  3177  04E6  30FF               	movlw	low highword(0FF0000h)
  3178  04E7  0572               	andwf	(___ftpack@arg+2),w
  3179  04E8  1D03               	btfss	status,2
  3180  04E9  2CEB               	goto	u2861
  3181  04EA  2CEC               	goto	u2860
  3182  04EB                     u2861:
  3183  04EB  2CD0               	goto	l4575
  3184  04EC                     u2860:
  3185  04EC  2CF9               	goto	l4583
  3186                           	
  3187  04ED                     l3198:	
  3188                           	line	75
  3189  04ED  2CF9               	goto	l4583
  3190                           	
  3191  04EE                     l3200:	
  3192                           	line	76
  3193                           	
  3194  04EE                     l4581:	
  3195  04EE  3001               	movlw	low(01h)
  3196  04EF  02F3               	subwf	(___ftpack@exp),f
  3197                           	line	77
  3198  04F0  3001               	movlw	01h
  3199  04F1                     u2875:
  3200  04F1  1003               	clrc
  3201  04F2  0DF0               	rlf	(___ftpack@arg),f
  3202  04F3  0DF1               	rlf	(___ftpack@arg+1),f
  3203  04F4  0DF2               	rlf	(___ftpack@arg+2),f
  3204  04F5  3EFF               	addlw	-1
  3205  04F6  1D03               	skipz
  3206  04F7  2CF1               	goto	u2875
  3207  04F8  2CF9               	goto	l4583
  3208                           	line	78
  3209                           	
  3210  04F9                     l3199:	
  3211                           	line	75
  3212                           	
  3213  04F9                     l4583:	
  3214  04F9  1FF1               	btfss	(___ftpack@arg+1),(15)&7
  3215  04FA  2CFC               	goto	u2881
  3216  04FB  2CFD               	goto	u2880
  3217  04FC                     u2881:
  3218  04FC  2CEE               	goto	l4581
  3219  04FD                     u2880:
  3220                           	
  3221  04FD                     l3201:	
  3222                           	line	79
  3223  04FD  1873               	btfsc	(___ftpack@exp),(0)&7
  3224  04FE  2D00               	goto	u2891
  3225  04FF  2D01               	goto	u2890
  3226  0500                     u2891:
  3227  0500  2D07               	goto	l3202
  3228  0501                     u2890:
  3229                           	line	80
  3230                           	
  3231  0501                     l4585:	
  3232  0501  30FF               	movlw	0FFh
  3233  0502  05F0               	andwf	(___ftpack@arg),f
  3234  0503  307F               	movlw	07Fh
  3235  0504  05F1               	andwf	(___ftpack@arg+1),f
  3236  0505  30FF               	movlw	0FFh
  3237  0506  05F2               	andwf	(___ftpack@arg+2),f
  3238                           	
  3239  0507                     l3202:	
  3240                           	line	81
  3241  0507  1003               	clrc
  3242  0508  0CF3               	rrf	(___ftpack@exp),f
  3243                           
  3244                           	line	82
  3245                           	
  3246  0509                     l4587:	
  3247  0509  0873               	movf	(___ftpack@exp),w
  3248  050A  00F5               	movwf	((??___ftpack+0)+0)
  3249  050B  01F6               	clrf	((??___ftpack+0)+0+1)
  3250  050C  01F7               	clrf	((??___ftpack+0)+0+2)
  3251  050D  3010               	movlw	010h
  3252  050E                     u2905:
  3253  050E  1003               	clrc
  3254  050F  0DF5               	rlf	(??___ftpack+0)+0,f
  3255  0510  0DF6               	rlf	(??___ftpack+0)+1,f
  3256  0511  0DF7               	rlf	(??___ftpack+0)+2,f
  3257  0512                     u2900:
  3258  0512  3EFF               	addlw	-1
  3259  0513  1D03               	skipz
  3260  0514  2D0E               	goto	u2905
  3261  0515  0875               	movf	0+(??___ftpack+0)+0,w
  3262  0516  04F0               	iorwf	(___ftpack@arg),f
  3263  0517  0876               	movf	1+(??___ftpack+0)+0,w
  3264  0518  04F1               	iorwf	(___ftpack@arg+1),f
  3265  0519  0877               	movf	2+(??___ftpack+0)+0,w
  3266  051A  04F2               	iorwf	(___ftpack@arg+2),f
  3267                           	line	83
  3268                           	
  3269  051B                     l4589:	
  3270  051B  0874               	movf	(___ftpack@sign),w
  3271  051C  1D03               	skipz
  3272  051D  2D1F               	goto	u2910
  3273  051E  2D20               	goto	l3203
  3274  051F                     u2910:
  3275                           	line	84
  3276                           	
  3277  051F                     l4591:	
  3278  051F  17F2               	bsf	(___ftpack@arg)+(23/8),(23)&7
  3279                           	
  3280  0520                     l3203:	
  3281                           	line	85
  3282                           	line	86
  3283                           	
  3284  0520                     l3192:	
  3285  0520  0008               	return
  3286                           	opt stack 0
  3287                           GLOBAL	__end_of___ftpack
  3288  0521                     	__end_of___ftpack:
  3289 ;; =============== function ___ftpack ends ============
  3290                           
  3291                           	signat	___ftpack,12411
  3292                           	global	___lwmod
  3293                           psect	text431,local,class=CODE,delta=2
  3294                           global __ptext431
  3295  0336                     __ptext431:
  3296                           
  3297 ;; *************** function ___lwmod *****************
  3298 ;; Defined at:
  3299 ;;		line 5 in file "C:\Program Files (x86)\HI-TECH Software\PICC\9.82\sources\lwmod.c"
  3300 ;; Parameters:    Size  Location     Type
  3301 ;;  divisor         2    0[COMMON] unsigned int 
  3302 ;;  dividend        2    2[COMMON] unsigned int 
  3303 ;; Auto vars:     Size  Location     Type
  3304 ;;  counter         1    5[COMMON] unsigned char 
  3305 ;; Return value:  Size  Location     Type
  3306 ;;                  2    0[COMMON] unsigned int 
  3307 ;; Registers used:
  3308 ;;		wreg, status,2, status,0
  3309 ;; Tracked objects:
  3310 ;;		On entry : 0/0
  3311 ;;		On exit  : 0/0
  3312 ;;		Unchanged: 0/0
  3313 ;; Data sizes:     COMMON   BANK0   BANK1   BANK3   BANK2
  3314 ;;      Params:         4       0       0       0       0
  3315 ;;      Locals:         1       0       0       0       0
  3316 ;;      Temps:          1       0       0       0       0
  3317 ;;      Totals:         6       0       0       0       0
  3318 ;;Total ram usage:        6 bytes
  3319 ;; Hardware stack levels used:    1
  3320 ;; This function calls:
  3321 ;;		Nothing
  3322 ;; This function is called by:
  3323 ;;		_utoa
  3324 ;; This function uses a non-reentrant model
  3325 ;;
  3326                           psect	text431
  3327                           	file	"C:\Program Files (x86)\HI-TECH Software\PICC\9.82\sources\lwmod.c"
  3328                           	line	5
  3329                           	global	__size_of___lwmod
  3330  0044                     	__size_of___lwmod	equ	__end_of___lwmod-___lwmod
  3331                           	
  3332  0336                     ___lwmod:	
  3333                           	opt	stack 5
  3334                           ; Regs used in ___lwmod: [wreg+status,2+status,0]
  3335                           	line	8
  3336                           	
  3337  0336                     l4471:	
  3338  0336  0871               	movf	(___lwmod@divisor+1),w
  3339  0337  0470               	iorwf	(___lwmod@divisor),w
  3340  0338  1903               	skipnz
  3341  0339  2B3B               	goto	u2511
  3342  033A  2B3C               	goto	u2510
  3343  033B                     u2511:
  3344  033B  2B72               	goto	l4489
  3345  033C                     u2510:
  3346                           	line	9
  3347                           	
  3348  033C                     l4473:	
  3349  033C  01F5               	clrf	(___lwmod@counter)
  3350  033D  1403               	bsf	status,0
  3351  033E  0DF5               	rlf	(___lwmod@counter),f
  3352                           	line	10
  3353  033F  2B4C               	goto	l4479
  3354                           	
  3355  0340                     l2875:	
  3356                           	line	11
  3357                           	
  3358  0340                     l4475:	
  3359  0340  3001               	movlw	01h
  3360                           	
  3361  0341                     u2525:
  3362  0341  1003               	clrc
  3363  0342  0DF0               	rlf	(___lwmod@divisor),f
  3364  0343  0DF1               	rlf	(___lwmod@divisor+1),f
  3365  0344  3EFF               	addlw	-1
  3366  0345  1D03               	skipz
  3367  0346  2B41               	goto	u2525
  3368                           	line	12
  3369                           	
  3370  0347                     l4477:	
  3371  0347  3001               	movlw	(01h)
  3372  0348  00F4               	movwf	(??___lwmod+0)+0
  3373  0349  0874               	movf	(??___lwmod+0)+0,w
  3374  034A  07F5               	addwf	(___lwmod@counter),f
  3375  034B  2B4C               	goto	l4479
  3376                           	line	13
  3377                           	
  3378  034C                     l2874:	
  3379                           	line	10
  3380                           	
  3381  034C                     l4479:	
  3382  034C  1FF1               	btfss	(___lwmod@divisor+1),(15)&7
  3383  034D  2B4F               	goto	u2531
  3384  034E  2B50               	goto	u2530
  3385  034F                     u2531:
  3386  034F  2B40               	goto	l4475
  3387  0350                     u2530:
  3388  0350  2B52               	goto	l4481
  3389                           	
  3390  0351                     l2876:	
  3391  0351  2B52               	goto	l4481
  3392                           	line	14
  3393                           	
  3394  0352                     l2877:	
  3395                           	line	15
  3396                           	
  3397  0352                     l4481:	
  3398  0352  0871               	movf	(___lwmod@divisor+1),w
  3399  0353  0273               	subwf	(___lwmod@dividend+1),w
  3400  0354  1D03               	skipz
  3401  0355  2B58               	goto	u2545
  3402  0356  0870               	movf	(___lwmod@divisor),w
  3403  0357  0272               	subwf	(___lwmod@dividend),w
  3404  0358                     u2545:
  3405  0358  1C03               	skipc
  3406  0359  2B5B               	goto	u2541
  3407  035A  2B5C               	goto	u2540
  3408  035B                     u2541:
  3409  035B  2B63               	goto	l4485
  3410  035C                     u2540:
  3411                           	line	16
  3412                           	
  3413  035C                     l4483:	
  3414  035C  0870               	movf	(___lwmod@divisor),w
  3415  035D  02F2               	subwf	(___lwmod@dividend),f
  3416  035E  0871               	movf	(___lwmod@divisor+1),w
  3417  035F  1C03               	skipc
  3418  0360  03F3               	decf	(___lwmod@dividend+1),f
  3419  0361  02F3               	subwf	(___lwmod@dividend+1),f
  3420  0362  2B63               	goto	l4485
  3421                           	
  3422  0363                     l2878:	
  3423                           	line	17
  3424                           	
  3425  0363                     l4485:	
  3426  0363  3001               	movlw	01h
  3427                           	
  3428  0364                     u2555:
  3429  0364  1003               	clrc
  3430  0365  0CF1               	rrf	(___lwmod@divisor+1),f
  3431  0366  0CF0               	rrf	(___lwmod@divisor),f
  3432  0367  3EFF               	addlw	-1
  3433  0368  1D03               	skipz
  3434  0369  2B64               	goto	u2555
  3435                           	line	18
  3436                           	
  3437  036A                     l4487:	
  3438  036A  3001               	movlw	low(01h)
  3439  036B  02F5               	subwf	(___lwmod@counter),f
  3440  036C  1D03               	btfss	status,2
  3441  036D  2B6F               	goto	u2561
  3442  036E  2B70               	goto	u2560
  3443  036F                     u2561:
  3444  036F  2B52               	goto	l4481
  3445  0370                     u2560:
  3446  0370  2B72               	goto	l4489
  3447                           	
  3448  0371                     l2879:	
  3449  0371  2B72               	goto	l4489
  3450                           	line	19
  3451                           	
  3452  0372                     l2873:	
  3453                           	line	20
  3454                           	
  3455  0372                     l4489:	
  3456  0372  0873               	movf	(___lwmod@dividend+1),w
  3457  0373  01F1               	clrf	(?___lwmod+1)
  3458  0374  07F1               	addwf	(?___lwmod+1)
  3459  0375  0872               	movf	(___lwmod@dividend),w
  3460  0376  01F0               	clrf	(?___lwmod)
  3461  0377  07F0               	addwf	(?___lwmod)
  3462                           
  3463  0378  2B79               	goto	l2880
  3464                           	
  3465  0379                     l4491:	
  3466                           	line	21
  3467                           	
  3468  0379                     l2880:	
  3469  0379  0008               	return
  3470                           	opt stack 0
  3471                           GLOBAL	__end_of___lwmod
  3472  037A                     	__end_of___lwmod:
  3473 ;; =============== function ___lwmod ends ============
  3474                           
  3475                           	signat	___lwmod,8314
  3476                           	global	___lwdiv
  3477                           psect	text432,local,class=CODE,delta=2
  3478                           global __ptext432
  3479  040A                     __ptext432:
  3480                           
  3481 ;; *************** function ___lwdiv *****************
  3482 ;; Defined at:
  3483 ;;		line 5 in file "C:\Program Files (x86)\HI-TECH Software\PICC\9.82\sources\lwdiv.c"
  3484 ;; Parameters:    Size  Location     Type
  3485 ;;  divisor         2    0[COMMON] unsigned int 
  3486 ;;  dividend        2    2[COMMON] unsigned int 
  3487 ;; Auto vars:     Size  Location     Type
  3488 ;;  quotient        2    5[COMMON] unsigned int 
  3489 ;;  counter         1    7[COMMON] unsigned char 
  3490 ;; Return value:  Size  Location     Type
  3491 ;;                  2    0[COMMON] unsigned int 
  3492 ;; Registers used:
  3493 ;;		wreg, status,2, status,0
  3494 ;; Tracked objects:
  3495 ;;		On entry : 0/0
  3496 ;;		On exit  : 0/0
  3497 ;;		Unchanged: 0/0
  3498 ;; Data sizes:     COMMON   BANK0   BANK1   BANK3   BANK2
  3499 ;;      Params:         4       0       0       0       0
  3500 ;;      Locals:         3       0       0       0       0
  3501 ;;      Temps:          1       0       0       0       0
  3502 ;;      Totals:         8       0       0       0       0
  3503 ;;Total ram usage:        8 bytes
  3504 ;; Hardware stack levels used:    1
  3505 ;; This function calls:
  3506 ;;		Nothing
  3507 ;; This function is called by:
  3508 ;;		_utoa
  3509 ;; This function uses a non-reentrant model
  3510 ;;
  3511                           psect	text432
  3512                           	file	"C:\Program Files (x86)\HI-TECH Software\PICC\9.82\sources\lwdiv.c"
  3513                           	line	5
  3514                           	global	__size_of___lwdiv
  3515  004E                     	__size_of___lwdiv	equ	__end_of___lwdiv-___lwdiv
  3516                           	
  3517  040A                     ___lwdiv:	
  3518                           	opt	stack 5
  3519                           ; Regs used in ___lwdiv: [wreg+status,2+status,0]
  3520                           	line	9
  3521                           	
  3522  040A                     l4445:	
  3523  040A  01F5               	clrf	(___lwdiv@quotient)
  3524  040B  01F6               	clrf	(___lwdiv@quotient+1)
  3525                           	line	10
  3526                           	
  3527  040C                     l4447:	
  3528  040C  0871               	movf	(___lwdiv@divisor+1),w
  3529  040D  0470               	iorwf	(___lwdiv@divisor),w
  3530  040E  1903               	skipnz
  3531  040F  2C11               	goto	u2441
  3532  0410  2C12               	goto	u2440
  3533  0411                     u2441:
  3534  0411  2C50               	goto	l4467
  3535  0412                     u2440:
  3536                           	line	11
  3537                           	
  3538  0412                     l4449:	
  3539  0412  01F7               	clrf	(___lwdiv@counter)
  3540  0413  1403               	bsf	status,0
  3541  0414  0DF7               	rlf	(___lwdiv@counter),f
  3542                           	line	12
  3543  0415  2C22               	goto	l4455
  3544                           	
  3545  0416                     l2865:	
  3546                           	line	13
  3547                           	
  3548  0416                     l4451:	
  3549  0416  3001               	movlw	01h
  3550                           	
  3551  0417                     u2455:
  3552  0417  1003               	clrc
  3553  0418  0DF0               	rlf	(___lwdiv@divisor),f
  3554  0419  0DF1               	rlf	(___lwdiv@divisor+1),f
  3555  041A  3EFF               	addlw	-1
  3556  041B  1D03               	skipz
  3557  041C  2C17               	goto	u2455
  3558                           	line	14
  3559                           	
  3560  041D                     l4453:	
  3561  041D  3001               	movlw	(01h)
  3562  041E  00F4               	movwf	(??___lwdiv+0)+0
  3563  041F  0874               	movf	(??___lwdiv+0)+0,w
  3564  0420  07F7               	addwf	(___lwdiv@counter),f
  3565  0421  2C22               	goto	l4455
  3566                           	line	15
  3567                           	
  3568  0422                     l2864:	
  3569                           	line	12
  3570                           	
  3571  0422                     l4455:	
  3572  0422  1FF1               	btfss	(___lwdiv@divisor+1),(15)&7
  3573  0423  2C25               	goto	u2461
  3574  0424  2C26               	goto	u2460
  3575  0425                     u2461:
  3576  0425  2C16               	goto	l4451
  3577  0426                     u2460:
  3578  0426  2C28               	goto	l4457
  3579                           	
  3580  0427                     l2866:	
  3581  0427  2C28               	goto	l4457
  3582                           	line	16
  3583                           	
  3584  0428                     l2867:	
  3585                           	line	17
  3586                           	
  3587  0428                     l4457:	
  3588  0428  3001               	movlw	01h
  3589                           	
  3590  0429                     u2475:
  3591  0429  1003               	clrc
  3592  042A  0DF5               	rlf	(___lwdiv@quotient),f
  3593  042B  0DF6               	rlf	(___lwdiv@quotient+1),f
  3594  042C  3EFF               	addlw	-1
  3595  042D  1D03               	skipz
  3596  042E  2C29               	goto	u2475
  3597                           	line	18
  3598  042F  0871               	movf	(___lwdiv@divisor+1),w
  3599  0430  0273               	subwf	(___lwdiv@dividend+1),w
  3600  0431  1D03               	skipz
  3601  0432  2C35               	goto	u2485
  3602  0433  0870               	movf	(___lwdiv@divisor),w
  3603  0434  0272               	subwf	(___lwdiv@dividend),w
  3604  0435                     u2485:
  3605  0435  1C03               	skipc
  3606  0436  2C38               	goto	u2481
  3607  0437  2C39               	goto	u2480
  3608  0438                     u2481:
  3609  0438  2C41               	goto	l4463
  3610  0439                     u2480:
  3611                           	line	19
  3612                           	
  3613  0439                     l4459:	
  3614  0439  0870               	movf	(___lwdiv@divisor),w
  3615  043A  02F2               	subwf	(___lwdiv@dividend),f
  3616  043B  0871               	movf	(___lwdiv@divisor+1),w
  3617  043C  1C03               	skipc
  3618  043D  03F3               	decf	(___lwdiv@dividend+1),f
  3619  043E  02F3               	subwf	(___lwdiv@dividend+1),f
  3620                           	line	20
  3621                           	
  3622  043F                     l4461:	
  3623  043F  1475               	bsf	(___lwdiv@quotient)+(0/8),(0)&7
  3624  0440  2C41               	goto	l4463
  3625                           	line	21
  3626                           	
  3627  0441                     l2868:	
  3628                           	line	22
  3629                           	
  3630  0441                     l4463:	
  3631  0441  3001               	movlw	01h
  3632                           	
  3633  0442                     u2495:
  3634  0442  1003               	clrc
  3635  0443  0CF1               	rrf	(___lwdiv@divisor+1),f
  3636  0444  0CF0               	rrf	(___lwdiv@divisor),f
  3637  0445  3EFF               	addlw	-1
  3638  0446  1D03               	skipz
  3639  0447  2C42               	goto	u2495
  3640                           	line	23
  3641                           	
  3642  0448                     l4465:	
  3643  0448  3001               	movlw	low(01h)
  3644  0449  02F7               	subwf	(___lwdiv@counter),f
  3645  044A  1D03               	btfss	status,2
  3646  044B  2C4D               	goto	u2501
  3647  044C  2C4E               	goto	u2500
  3648  044D                     u2501:
  3649  044D  2C28               	goto	l4457
  3650  044E                     u2500:
  3651  044E  2C50               	goto	l4467
  3652                           	
  3653  044F                     l2869:	
  3654  044F  2C50               	goto	l4467
  3655                           	line	24
  3656                           	
  3657  0450                     l2863:	
  3658                           	line	25
  3659                           	
  3660  0450                     l4467:	
  3661  0450  0876               	movf	(___lwdiv@quotient+1),w
  3662  0451  01F1               	clrf	(?___lwdiv+1)
  3663  0452  07F1               	addwf	(?___lwdiv+1)
  3664  0453  0875               	movf	(___lwdiv@quotient),w
  3665  0454  01F0               	clrf	(?___lwdiv)
  3666  0455  07F0               	addwf	(?___lwdiv)
  3667                           
  3668  0456  2C57               	goto	l2870
  3669                           	
  3670  0457                     l4469:	
  3671                           	line	26
  3672                           	
  3673  0457                     l2870:	
  3674  0457  0008               	return
  3675                           	opt stack 0
  3676                           GLOBAL	__end_of___lwdiv
  3677  0458                     	__end_of___lwdiv:
  3678 ;; =============== function ___lwdiv ends ============
  3679                           
  3680                           	signat	___lwdiv,8314
  3681                           	global	_init_adc
  3682                           psect	text433,local,class=CODE,delta=2
  3683                           global __ptext433
  3684  0234                     __ptext433:
  3685                           
  3686 ;; *************** function _init_adc *****************
  3687 ;; Defined at:
  3688 ;;		line 7 in file "F:\Prolific\pic_s\pic_pgm\12.2 adc lm35(temp)_10bit - Copy\program\my_adc.c"
  3689 ;; Parameters:    Size  Location     Type
  3690 ;;		None
  3691 ;; Auto vars:     Size  Location     Type
  3692 ;;		None
  3693 ;; Return value:  Size  Location     Type
  3694 ;;		None               void
  3695 ;; Registers used:
  3696 ;;		wreg
  3697 ;; Tracked objects:
  3698 ;;		On entry : 0/0
  3699 ;;		On exit  : 0/0
  3700 ;;		Unchanged: 0/0
  3701 ;; Data sizes:     COMMON   BANK0   BANK1   BANK3   BANK2
  3702 ;;      Params:         0       0       0       0       0
  3703 ;;      Locals:         0       0       0       0       0
  3704 ;;      Temps:          0       0       0       0       0
  3705 ;;      Totals:         0       0       0       0       0
  3706 ;;Total ram usage:        0 bytes
  3707 ;; Hardware stack levels used:    1
  3708 ;; This function calls:
  3709 ;;		Nothing
  3710 ;; This function is called by:
  3711 ;;		_main
  3712 ;; This function uses a non-reentrant model
  3713 ;;
  3714                           psect	text433
  3715                           	file	"F:\Prolific\pic_s\pic_pgm\12.2 adc lm35(temp)_10bit - Copy\program\my_adc.c"
  3716                           	line	7
  3717                           	global	__size_of_init_adc
  3718  000B                     	__size_of_init_adc	equ	__end_of_init_adc-_init_adc
  3719                           	
  3720  0234                     _init_adc:	
  3721                           	opt	stack 7
  3722                           ; Regs used in _init_adc: [wreg]
  3723                           	line	8
  3724                           	
  3725  0234                     l4443:	
  3726                           ;my_adc.c: 8: ADCON0 = 0B01000001;
  3727  0234  3041               	movlw	(041h)
  3728  0235  1283               	bcf	status, 5	;RP0=0, select bank0
  3729  0236  1303               	bcf	status, 6	;RP1=0, select bank0
  3730  0237  009F               	movwf	(31)	;volatile
  3731                           	line	9
  3732                           ;my_adc.c: 9: ADCON1 = 0B10000000;
  3733  0238  3080               	movlw	(080h)
  3734  0239  1683               	bsf	status, 5	;RP0=1, select bank1
  3735  023A  1303               	bcf	status, 6	;RP1=0, select bank1
  3736  023B  009F               	movwf	(159)^080h	;volatile
  3737                           	line	10
  3738                           ;my_adc.c: 10: TRISA = 0XFF;
  3739  023C  30FF               	movlw	(0FFh)
  3740  023D  0085               	movwf	(133)^080h	;volatile
  3741                           	line	11
  3742                           	
  3743  023E                     l2154:	
  3744  023E  0008               	return
  3745                           	opt stack 0
  3746                           GLOBAL	__end_of_init_adc
  3747  023F                     	__end_of_init_adc:
  3748 ;; =============== function _init_adc ends ============
  3749                           
  3750                           	signat	_init_adc,88
  3751                           	global	_DelayMs
  3752                           psect	text434,local,class=CODE,delta=2
  3753                           global __ptext434
  3754  027D                     __ptext434:
  3755                           
  3756 ;; *************** function _DelayMs *****************
  3757 ;; Defined at:
  3758 ;;		line 12 in file "F:\Prolific\pic_s\pic_pgm\12.2 adc lm35(temp)_10bit - Copy\program\delay.c"
  3759 ;; Parameters:    Size  Location     Type
  3760 ;;  cnt             1    wreg     unsigned char 
  3761 ;; Auto vars:     Size  Location     Type
  3762 ;;  cnt             1    1[COMMON] unsigned char 
  3763 ;;  _dcnt           1    3[COMMON] unsigned char 
  3764 ;;  i               1    2[COMMON] unsigned char 
  3765 ;; Return value:  Size  Location     Type
  3766 ;;		None               void
  3767 ;; Registers used:
  3768 ;;		wreg, status,2, status,0
  3769 ;; Tracked objects:
  3770 ;;		On entry : 0/0
  3771 ;;		On exit  : 0/0
  3772 ;;		Unchanged: 0/0
  3773 ;; Data sizes:     COMMON   BANK0   BANK1   BANK3   BANK2
  3774 ;;      Params:         0       0       0       0       0
  3775 ;;      Locals:         3       0       0       0       0
  3776 ;;      Temps:          1       0       0       0       0
  3777 ;;      Totals:         4       0       0       0       0
  3778 ;;Total ram usage:        4 bytes
  3779 ;; Hardware stack levels used:    1
  3780 ;; This function calls:
  3781 ;;		Nothing
  3782 ;; This function is called by:
  3783 ;;		_main
  3784 ;;		_read_adc
  3785 ;;		_delay
  3786 ;; This function uses a non-reentrant model
  3787 ;;
  3788                           psect	text434
  3789                           	file	"F:\Prolific\pic_s\pic_pgm\12.2 adc lm35(temp)_10bit - Copy\program\delay.c"
  3790                           	line	12
  3791                           	global	__size_of_DelayMs
  3792  0021                     	__size_of_DelayMs	equ	__end_of_DelayMs-_DelayMs
  3793                           	
  3794  027D                     _DelayMs:	
  3795                           	opt	stack 7
  3796                           ; Regs used in _DelayMs: [wreg+status,2+status,0]
  3797                           ;DelayMs@cnt stored from wreg
  3798  027D  00F1               	movwf	(DelayMs@cnt)
  3799                           	line	21
  3800                           ;delay.c: 20: unsigned char i;
  3801                           ;delay.c: 21: do {
  3802                           	
  3803  027E                     l3:	
  3804                           	line	22
  3805                           	
  3806  027E                     l4397:	
  3807                           ;delay.c: 22: i = 4;
  3808  027E  3004               	movlw	(04h)
  3809  027F  00F0               	movwf	(??_DelayMs+0)+0
  3810  0280  0870               	movf	(??_DelayMs+0)+0,w
  3811  0281  00F2               	movwf	(DelayMs@i)
  3812                           	line	23
  3813                           ;delay.c: 23: do {
  3814                           	
  3815  0282                     l4:	
  3816                           	line	24
  3817                           ;delay.c: 24: { unsigned char _dcnt; _dcnt = (250)*((20*1000L)/(12*1000L)); while(--_dcn
                                 t != 0) continue; };
  3818  0282  30FA               	movlw	(0FAh)
  3819  0283  00F0               	movwf	(??_DelayMs+0)+0
  3820  0284  0870               	movf	(??_DelayMs+0)+0,w
  3821  0285  00F3               	movwf	(DelayMs@_dcnt)
  3822  0286  2A88               	goto	l4399
  3823                           	
  3824  0287                     l6:	
  3825  0287  2A88               	goto	l4399
  3826                           	
  3827  0288                     l5:	
  3828                           	
  3829  0288                     l4399:	
  3830  0288  3001               	movlw	low(01h)
  3831  0289  02F3               	subwf	(DelayMs@_dcnt),f
  3832  028A  1D03               	btfss	status,2
  3833  028B  2A8D               	goto	u2381
  3834  028C  2A8E               	goto	u2380
  3835  028D                     u2381:
  3836  028D  2A88               	goto	l4399
  3837  028E                     u2380:
  3838  028E  2A8F               	goto	l4401
  3839                           	
  3840  028F                     l7:	
  3841                           	line	25
  3842                           	
  3843  028F                     l4401:	
  3844                           ;delay.c: 25: } while(--i);
  3845  028F  3001               	movlw	low(01h)
  3846  0290  02F2               	subwf	(DelayMs@i),f
  3847  0291  1D03               	btfss	status,2
  3848  0292  2A94               	goto	u2391
  3849  0293  2A95               	goto	u2390
  3850  0294                     u2391:
  3851  0294  2A82               	goto	l4
  3852  0295                     u2390:
  3853  0295  2A96               	goto	l4403
  3854                           	
  3855  0296                     l8:	
  3856                           	line	26
  3857                           	
  3858  0296                     l4403:	
  3859                           ;delay.c: 26: } while(--cnt);
  3860  0296  3001               	movlw	low(01h)
  3861  0297  02F1               	subwf	(DelayMs@cnt),f
  3862  0298  1D03               	btfss	status,2
  3863  0299  2A9B               	goto	u2401
  3864  029A  2A9C               	goto	u2400
  3865  029B                     u2401:
  3866  029B  2A7E               	goto	l3
  3867  029C                     u2400:
  3868  029C  2A9D               	goto	l10
  3869                           	
  3870  029D                     l9:	
  3871                           	line	28
  3872                           	
  3873  029D                     l10:	
  3874  029D  0008               	return
  3875                           	opt stack 0
  3876                           GLOBAL	__end_of_DelayMs
  3877  029E                     	__end_of_DelayMs:
  3878 ;; =============== function _DelayMs ends ============
  3879                           
  3880                           	signat	_DelayMs,4216
  3881                           psect	text435,local,class=CODE,delta=2
  3882                           global __ptext435
  3883  0000                     __ptext435:
  3884                           	global	btemp
  3885  007E                     	btemp set 07Eh
  3886                           
  3887                           	DABS	1,126,2	;btemp
  3888                           	global	wtemp0
  3889  007E                     	wtemp0 set btemp


HI-TECH Software PICC Macro Assembler V9.82 build 9453 
Symbol Table                                                                                   Sat Aug 06 16:43:12 2016

                    l3 027E                      l4 0282                      l5 0288                      l6 0287  
                    l7 028F                      l8 0296                      l9 029D                      _k 0042  
                    _v 0044                      pc 0002                     l10 029D                     _GO 00FA  
                   _RD 0C60                     _WR 0C61                     fsr 0004                    l712 024E  
                  l722 02B7                    l715 0390                    l723 02A2                    l716 0392  
                  l724 02C8                    l740 03EF                    l717 03B9                    l709 04A5  
                  l725 02C8                    l741 0409                    l718 03BB                    l734 03FB  
                  l719 03C0                    l735 03C3                    l736 0409                    l737 03CE  
                  l738 03D9                    l739 03E4                    _GIE 005F                    _RD2 0042  
                  _RD3 0043                    _buf 0046                    fsr0 0004                    indf 0000  
          lcd_goto@pos 0076                   l3200 04EE                   l2160 0335                   l3201 04FD  
                 l2154 023E                   l3202 0507                   l3203 0520                   l2157 0314  
                 l2158 0314                   l2159 0319                   l3080 027C                   l1464 0666  
                 l1465 070E                   l1466 070F                   l1467 070F                   l3191 04B2  
                 l3192 0520                   l4401 028F                   l3193 04C8                   l3194 04BB  
                 l4403 0296                   l3195 04CF                   l3196 04E6                   l3197 04D0  
                 l3189 04BA                   l3198 04ED                   l3199 04F9                   l2840 02F8  
                 l4443 0234                   l4451 0416                   l2843 052B                   l2844 054F  
                 l4461 043F                   l4453 041D                   l4445 040A                   l2845 0556  
                 l2870 0457                   l2846 0590                   l2863 0450                   l4463 0441  
                 l4455 0422                   l4447 040C                   l4471 0336                   l2847 05A4  
                 l2839 02E5                   l2864 0422                   l2880 0379                   l2848 05A4  
                 l2960 07B2                   l4465 0448                   l4457 0428                   l2865 0416  
                 l4449 0412                   l2873 0372                   l4481 0352                   l4473 033C  
                 l4641 05C1                   l2961 07B7                   l4801 0746                   l2866 0427  
                 l2874 034C                   l2970 05FA                   l2962 07CC                   l4459 0439  
                 l2867 0428                   l4467 0450                   l4491 0379                   l4483 035C  
                 l4475 0340                   l2875 0340                   l4571 04BB                   l4563 04A6  
                 l2971 060C                   l4651 05E2                   l4643 05C2                   l2963 07E3  
                 l4811 0781                   l4803 0773                   l2955 072D                   l2868 0441  
                 l2876 0351                   l2972 0631                   l2956 07FF                   l4397 027E  
                 l4469 0457                   l2869 044F                   l4485 0363                   l2877 0352  
                 l4477 0347                   l4581 04EE                   l4573 04C8                   l4565 04AA  
                 l2973 061D                   l4661 05FA                   l4653 05E4                   l4645 05D4  
                 l4637 05A5                   l4821 07AB                   l4813 0786                   l4805 0774  
                 l2957 0746                   l4901 02B0                   l2878 0363                   l2974 062A  
                 l2966 05C2                   l2958 0786                   l4399 0288                   l2879 0371  
                 l4487 036A                   l4479 034C                   l4591 051F                   l4583 04F9  
                 l4575 04D0                   l4567 04B2                   l2975 061E                   l4671 062A  
                 l4655 05E8                   l4663 060D                   l4647 05D5                   l2967 064A  
                 l4639 05B8                   l4743 023F                   l4751 02FC                   l4831 07D4  
                 l4823 07B2                   l2959 079B                   l4815 078A                   l4807 0775  
                 l4903 02B7                   l4911 03DC                   l2976 0630                   l2968 060D  
                 l4489 0372                   l4585 0501                   l4577 04D4                   l4569 04B9  
                 l2977 0641                   l4665 0613                   l4673 0631                   l2969 05F9  
                 l4657 05EF                   l4649 05DB                   l4745 0242                   l4761 0335  
                 l4753 030A                   l4833 07DC                   l4825 07B7                   l4817 079B  
                 l4809 077B                   l4841 027C                   l4913 03E7                   l4905 03C2  
                 l4921 064B                   l4587 0509                   l4579 04DE                   l4675 0635  
                 l4667 061C                   l4659 05F8                   l4747 024B                   l4755 0310  
                 l4771 054F                   l4763 0524                   l4835 07E3                   l4827 07BB  
                 l4819 07A3                   l4851 038E                   l4843 037B                   l4915 03F2  
                 l4907 03C6                   l4931 0684                   l4923 0655                   l4589 051B  
                 l4677 0641                   l4669 061E                   l4757 0319                   l4749 02FA  
                 l4781 058C                   l4773 0553                   l4765 052B                   l4837 07FF  
                 l4829 07CC                   l4861 03AD                   l4853 0392                   l4845 037F  
                 l4917 03FA                   l4909 03D1                   l4941 06E5                   l4933 0690  
                 l4925 065C                   l4679 064A                   l4759 032E                   l4783 0594  
                 l4775 0556                   l4767 0544                   l4791 0725                   l4839 0262  
                 l4863 03B3                   l4855 0397                   l4847 0384                   l4871 02D0  
                 l4919 03FB                   l4943 06EE                   l4935 0699                   l4927 0666  
                 l4785 059B                   l4777 056D                   l4769 0548                   l4793 072C  
                 l4865 03B7                   l4857 039B                   l4849 038A                   l4881 02F8  
                 l4873 02D4                   l4945 06F7                   l4937 06CE                   l4929 0674  
                 l4787 059D                   l4779 0584                   l4795 072D                   l4867 03BB  
                 l4859 03A8                   l4875 02DB                   l4891 046C                   l4883 0458  
                 l4947 0704                   l4939 06DE                   l4797 073E                   l4789 0712  
                 l4877 02DF                   l4869 02CC                   l4893 0471                   l4885 045B  
                 l4799 0745                   l4879 02E5                   l4895 0476                   l4887 0468  
                 l4889 046B                   l4897 029E                   l4899 02A2                   STR_1 0022  
                 STR_2 002E                   STR_3 0013                   u3000 05B8                   u3001 05B7  
                 u3010 05CD                   u3020 05E8                   u3021 05E7                   u3030 05EF  
                 u3031 05EE                   u3015 05C9                   u2400 029C                   u3200 054E  
                 u2401 029B                   u3201 054D                   u3050 060B                   u3210 058C  
                 u3051 060A                   u3211 058B                   u2500 044E                   u3060 0613  
                 u3220 05A3                   u2501 044D                   u3061 0612                   u3045 05FB  
                 u3221 05A2                   u2510 033C                   u3310 07B1                   u3230 0725  
                 u2511 033B                   u3311 07B0                   u3231 0724                   u2440 0412  
                 u3080 062F                   u3320 07BB                   u3240 073E                   u3400 02D4  
                 u2441 0411                   u3081 062E                   u3321 07BA                   u3305 07A4  
                 u3241 073D                   u3401 02D3                   u2530 0350                   u3090 0635  
                 u3250 0756                   u3410 02C7                   u2531 034F                   u3075 0620  
                 u3331 07C4                   u3411 02C6                   u2380 028E                   u2460 0426  
                 u2540 035C                   u3332 07CB                   u3260 0768                   u2381 028D  
                 u2461 0425                   u2541 035B                   u2525 0341                   u2390 0295  
                 u3190 0318                   u3270 078A                   u2391 0294                   u2455 0417  
                 u3191 0317                   u3271 0789                   u3255 0752                   u2480 0439  
                 u2560 0370                   u3360 07E2                   u2481 0438                   u2561 036F  
                 u2545 0358                   u3185 02FF                   u3361 07E1                   u3345 07CD  
                 u3281 0793                   u3265 0764                   u2810 04AA                   u3282 079A  
                 u3370 038E                   u2475 0429                   u2555 0364                   u3355 07D5  
                 u3371 038D                   u3427 0461                   u2900 0512                   u2820 04B1  
                 u2485 0435                   u2821 04B0                   u3437 0246                   u2910 051F  
                 u3390 03B7                   u2495 0442                   u3295 079C                   u3391 03B6  
                 u2840 04CE                   u2905 050E                   u2841 04CD                   u3385 039E  
                 u2835 04C0                   u2860 04EC                   u2861 04EB                   u2855 04DF  
                 u2880 04FD                   u2881 04FC                   u2890 0501                   u2891 0500  
                 u2875 04F1                   _WREN 0C62                   _buf1 003E                   _main 064B  
         ___ftpack@arg 0070                   _mode 0260                   _itoa 02C9           ___ftpack@exp 0073  
                 _send 037A                   btemp 007E                   _utoa 0521           lcd_goto@line 0077  
                 start 0000        __end_of_DelayMs 029E           ___ftmul@cntr 003B           ___ftmul@sign 003C  
         ___fttol@exp1 0029           ___fttol@lval 0025                  ?_main 0070                  ?_itoa 0024  
                _EEADR 010D                  ?_send 0070                  _CARRY 0018                  ?_utoa 0078  
      __end_of___ftmul 0800        __end_of___fttol 064B        __end_of___lwdiv 0458        __end_of___lwmod 037A  
                _PORTD 0008                  _TRISA 0085                  _TRISD 0088    __size_of_LCD_STROBE 0010  
        ___ftpack@sign 0074                  pclath 000A                  send@x 0075                  utoa@c 0022  
                utoa@v 0020                  status 0003                  wtemp0 007E           __end_of_main 0712  
         __end_of_itoa 02F9           __end_of_send 03C1           __end_of_utoa 05A5                 ??_main 003D  
        ___fttol@sign1 0024                 ??_itoa 007D                 ??_send 0072                 ??_utoa 007C  
               _ADCON0 001F                 _ADCON1 009F                 _ADRESH 001E                 _ADRESL 009E  
               _EEDATA 010C                 _EECON1 018C                 _EECON2 018D       __end_of___ftpack 0521  
            ??_DelayMs 0070       __end_of___lwtoft 027D       __end_of_lcd_init 04A6       __end_of_lcd_goto 040A  
     __end_of_lcd_puts 02C9              ??___ftmul 0033              ??___fttol 0020              ??___lwdiv 0074  
            ??___lwmod 0074       __end_of_init_adc 023F       __end_of_read_adc 0336  ___ftmul@f3_as_product 0038  
               itoa@cp 0028           ??_LCD_STROBE 0070             ___ftmul@f1 002D             ___ftmul@f2 0030  
           ___fttol@f1 0078         __pcstackCOMMON 0070             ___lwtoft@c 002A     __end_of_LCD_STROBE 024F  
           __pbssBANK0 003E             __pmaintext 064B              ?___ftpack 0070              ?___lwtoft 002A  
            ?_lcd_init 0070              ?_lcd_goto 0076              ?_lcd_puts 0076                _DelayMs 027D  
            ?_init_adc 0070              ?_read_adc 0074                ___ftmul 0712                ___fttol 05A5  
              _adc_val 004A                ___lwdiv 040A                ___lwmod 0336             ??___ftpack 0075  
           ??___lwtoft 007C             ??_lcd_init 0076             ??_lcd_goto 0077             ??_lcd_puts 0078  
 end_of_initialization 025E                itoa@buf 0029             ??_init_adc 0070                itoa@val 0024  
           ??_read_adc 0076                utoa@buf 0023                utoa@val 0078        read_adc@channel 007A  
          ___ftmul@exp 0037          __pbitbssBANK0 0260           DelayMs@_dcnt 0073    start_initialization 024F  
    __size_of___ftpack 007B      __size_of___lwtoft 001B          __pcstackBANK0 0020               ?_DelayMs 0070  
    __size_of_lcd_init 004E      __size_of_lcd_goto 0049      __size_of_lcd_puts 002B      __size_of_init_adc 000B  
    __size_of_read_adc 003D       ___lwdiv@dividend 0072              __ptext420 029E              __ptext421 0458  
            __ptext430 04A6              __ptext422 02C9              __ptext431 0336              __ptext423 037A  
            __ptext432 040A              __ptext424 0262              __ptext433 0234              __ptext425 0712  
            __ptext434 027D              __ptext426 0521              __ptext418 0000              __ptext435 0000  
            __ptext427 02F9              __ptext419 03C1              __ptext428 023F              __ptext429 05A5  
             ?___ftmul 002D               ?___fttol 0078               ?___lwdiv 0070               ?___lwmod 0070  
            __pstrings 0003       ___lwdiv@quotient 0075               DelayMs@i 0072            __stringbase 0012  
            lcd_puts@s 0076       __size_of_DelayMs 0021       __size_of___ftmul 00EE       __size_of___fttol 00A6  
     __size_of___lwdiv 004E       __size_of___lwmod 0044               ___ftpack 04A6               ___lwtoft 0262  
      ___lwdiv@divisor 0070        ___lwdiv@counter 0077               _lcd_init 0458               _lcd_goto 03C1  
             _lcd_puts 029E               _init_adc 0234               _read_adc 02F9          __size_of_main 00C7  
        __size_of_itoa 0030          __size_of_send 0047          __size_of_utoa 0084             _LCD_STROBE 023F  
           DelayMs@cnt 0071               itoa@base 0026               send@temp 0074       ___lwmod@dividend 0072  
    read_adc@adc_value 007B              stringcode 000D               utoa@base 007A        ___lwmod@divisor 0070  
      ___lwmod@counter 0075               stringdir 000D               stringtab 0003            ?_LCD_STROBE 0070  
