opt subtitle "HI-TECH Software Omniscient Code Generator (Lite mode) build 9453"

opt pagewidth 120

	opt lm

	processor	16F877A
clrc	macro
	bcf	3,0
	endm
clrz	macro
	bcf	3,2
	endm
setc	macro
	bsf	3,0
	endm
setz	macro
	bsf	3,2
	endm
skipc	macro
	btfss	3,0
	endm
skipz	macro
	btfss	3,2
	endm
skipnc	macro
	btfsc	3,0
	endm
skipnz	macro
	btfsc	3,2
	endm
indf	equ	0
indf0	equ	0
pc	equ	2
pcl	equ	2
status	equ	3
fsr	equ	4
fsr0	equ	4
c	equ	1
z	equ	0
pclath	equ	10
	FNROOT	_main
	global	_count
	global	_on
	global	_PORTC
psect	maintext,global,class=CODE,delta=2
global __pmaintext
__pmaintext:
_PORTC	set	7
	global	_PORTD
_PORTD	set	8
	global	_CARRY
_CARRY	set	24
	global	_GIE
_GIE	set	95
	global	_RC3
_RC3	set	59
	global	_RD0
_RD0	set	64
	global	_TRISC
_TRISC	set	135
	global	_TRISD
_TRISD	set	136
	global	_EEADR
_EEADR	set	269
	global	_EEDATA
_EEDATA	set	268
	global	_EECON1
_EECON1	set	396
	global	_EECON2
_EECON2	set	397
	global	_RD
_RD	set	3168
	global	_WR
_WR	set	3169
	global	_WREN
_WREN	set	3170
	file	"S.as"
	line	#
psect cinit,class=CODE,delta=2
global start_initialization
start_initialization:

psect	bssCOMMON,class=COMMON,space=1
global __pbssCOMMON
__pbssCOMMON:
_count:
       ds      2

_on:
       ds      2

; Clear objects allocated to COMMON
psect cinit,class=CODE,delta=2
	clrf	((__pbssCOMMON)+0)&07Fh
	clrf	((__pbssCOMMON)+1)&07Fh
	clrf	((__pbssCOMMON)+2)&07Fh
	clrf	((__pbssCOMMON)+3)&07Fh
psect cinit,class=CODE,delta=2
global end_of_initialization

;End of C runtime variable initialization code

end_of_initialization:
clrf status
ljmp _main	;jump to C main() function
psect	cstackCOMMON,class=COMMON,space=1
global __pcstackCOMMON
__pcstackCOMMON:
	global	?_main
?_main:	; 0 bytes @ 0x0
	global	??_main
??_main:	; 0 bytes @ 0x0
;;Data sizes: Strings 0, constant 0, data 0, bss 4, persistent 0 stack 0
;;Auto spaces:   Size  Autos    Used
;; COMMON          14      0       4
;; BANK0           80      0       0
;; BANK1           80      0       0
;; BANK3           96      0       0
;; BANK2           96      0       0

;;
;; Pointer list with targets:



;;
;; Critical Paths under _main in COMMON
;;
;;   None.
;;
;; Critical Paths under _main in BANK0
;;
;;   None.
;;
;; Critical Paths under _main in BANK1
;;
;;   None.
;;
;; Critical Paths under _main in BANK3
;;
;;   None.
;;
;; Critical Paths under _main in BANK2
;;
;;   None.

;;
;;Main: autosize = 0, tempsize = 0, incstack = 0, save=0
;;

;;
;;Call Graph Tables:
;;
;; ---------------------------------------------------------------------------------
;; (Depth) Function   	        Calls       Base Space   Used Autos Params    Refs
;; ---------------------------------------------------------------------------------
;; (0) _main                                                 0     0      0       0
;; ---------------------------------------------------------------------------------
;; Estimated maximum stack depth 0
;; ---------------------------------------------------------------------------------

;; Call Graph Graphs:

;; _main (ROOT)
;;

;; Address spaces:

;;Name               Size   Autos  Total    Cost      Usage
;;BITCOMMON            E      0       0       0        0.0%
;;EEDATA             100      0       0       0        0.0%
;;NULL                 0      0       0       0        0.0%
;;CODE                 0      0       0       0        0.0%
;;COMMON               E      0       4       1       28.6%
;;BITSFR0              0      0       0       1        0.0%
;;SFR0                 0      0       0       1        0.0%
;;BITSFR1              0      0       0       2        0.0%
;;SFR1                 0      0       0       2        0.0%
;;STACK                0      0       0       2        0.0%
;;ABS                  0      0       4       3        0.0%
;;BITBANK0            50      0       0       4        0.0%
;;BITSFR3              0      0       0       4        0.0%
;;SFR3                 0      0       0       4        0.0%
;;BANK0               50      0       0       5        0.0%
;;BITSFR2              0      0       0       5        0.0%
;;SFR2                 0      0       0       5        0.0%
;;BITBANK1            50      0       0       6        0.0%
;;BANK1               50      0       0       7        0.0%
;;BITBANK3            60      0       0       8        0.0%
;;BANK3               60      0       0       9        0.0%
;;BITBANK2            60      0       0      10        0.0%
;;BANK2               60      0       0      11        0.0%
;;DATA                 0      0       4      12        0.0%

	global	_main
psect	maintext

;; *************** function _main *****************
;; Defined at:
;;		line 10 in file "F:\Prolific\pic_s\pic_pgm\7   THREE KEYPRESS ON TWO KEYPRESS OFF\main.c"
;; Parameters:    Size  Location     Type
;;		None
;; Auto vars:     Size  Location     Type
;;		None
;; Return value:  Size  Location     Type
;;		None               void
;; Registers used:
;;		wreg, status,2
;; Tracked objects:
;;		On entry : 17F/0
;;		On exit  : 0/0
;;		Unchanged: 0/0
;; Data sizes:     COMMON   BANK0   BANK1   BANK3   BANK2
;;      Params:         0       0       0       0       0
;;      Locals:         0       0       0       0       0
;;      Temps:          0       0       0       0       0
;;      Totals:         0       0       0       0       0
;;Total ram usage:        0 bytes
;; This function calls:
;;		Nothing
;; This function is called by:
;;		Startup code after reset
;; This function uses a non-reentrant model
;;
psect	maintext
	file	"F:\Prolific\pic_s\pic_pgm\7   THREE KEYPRESS ON TWO KEYPRESS OFF\main.c"
	line	10
	global	__size_of_main
	__size_of_main	equ	__end_of_main-_main
	
_main:	
	opt	stack 8
; Regs used in _main: [wreg+status,2]
	line	11
	
l1779:	
;main.c: 11: TRISC=0X0f;
	movlw	(0Fh)
	bsf	status, 5	;RP0=1, select bank1
	bcf	status, 6	;RP1=0, select bank1
	movwf	(135)^080h	;volatile
	line	12
	
l1781:	
;main.c: 12: PORTC=0X00;
	bcf	status, 5	;RP0=0, select bank0
	bcf	status, 6	;RP1=0, select bank0
	clrf	(7)	;volatile
	line	13
	
l1783:	
;main.c: 13: TRISD=0X00;
	bsf	status, 5	;RP0=1, select bank1
	bcf	status, 6	;RP1=0, select bank1
	clrf	(136)^080h	;volatile
	line	14
	
l1785:	
;main.c: 14: PORTD=0X00;
	bcf	status, 5	;RP0=0, select bank0
	bcf	status, 6	;RP1=0, select bank0
	clrf	(8)	;volatile
	goto	l1787
	line	15
;main.c: 15: while(1)
	
l705:	
	line	17
	
l1787:	
;main.c: 16: {
;main.c: 17: if(RC3==1)
	btfss	(59/8),(59)&7
	goto	u51
	goto	u50
u51:
	goto	l1793
u50:
	goto	l707
	line	19
	
l1789:	
;main.c: 18: {
;main.c: 19: while(RC3==1);
	goto	l707
	
l708:	
	
l707:	
	btfsc	(59/8),(59)&7
	goto	u61
	goto	u60
u61:
	goto	l707
u60:
	goto	l1791
	
l709:	
	line	20
	
l1791:	
;main.c: 20: count++;
	movlw	low(01h)
	addwf	(_count),f
	skipnc
	incf	(_count+1),f
	movlw	high(01h)
	addwf	(_count+1),f
	line	21
;main.c: 21: }
	goto	l1787
	line	22
	
l706:	
	
l1793:	
;main.c: 22: else if(count==1 )
	movlw	01h
	xorwf	(_count),w
	iorwf	(_count+1),w
	skipz
	goto	u71
	goto	u70
u71:
	goto	l1797
u70:
	line	24
	
l1795:	
;main.c: 23: {
;main.c: 24: RD0=1;
	bsf	(64/8),(64)&7
	line	25
;main.c: 25: }
	goto	l1787
	line	26
	
l711:	
	
l1797:	
;main.c: 26: else if(count==3 )
	movlw	03h
	xorwf	(_count),w
	iorwf	(_count+1),w
	skipz
	goto	u81
	goto	u80
u81:
	goto	l1787
u80:
	line	28
	
l1799:	
;main.c: 27: {
;main.c: 28: count=0;
	clrf	(_count)
	clrf	(_count+1)
	line	29
	
l1801:	
;main.c: 29: RD0=0;
	bcf	(64/8),(64)&7
	goto	l1787
	line	30
	
l713:	
	goto	l1787
	line	32
	
l712:	
	goto	l1787
	
l710:	
	goto	l1787
	
l714:	
	line	15
	goto	l1787
	
l715:	
	line	33
	
l716:	
	global	start
	ljmp	start
	opt stack 0
GLOBAL	__end_of_main
	__end_of_main:
;; =============== function _main ends ============

	signat	_main,88
psect	maintext
	global	btemp
	btemp set 07Eh

	DABS	1,126,2	;btemp
	global	wtemp0
	wtemp0 set btemp
	end
