opt subtitle "HI-TECH Software Omniscient Code Generator (Lite mode) build 6446"

opt pagewidth 120

	opt lm

	processor	16F877A
clrc	macro
	bcf	3,0
	endm
clrz	macro
	bcf	3,2
	endm
setc	macro
	bsf	3,0
	endm
setz	macro
	bsf	3,2
	endm
skipc	macro
	btfss	3,0
	endm
skipz	macro
	btfss	3,2
	endm
skipnc	macro
	btfsc	3,0
	endm
skipnz	macro
	btfsc	3,2
	endm
indf	equ	0
indf0	equ	0
pc	equ	2
pcl	equ	2
status	equ	3
fsr	equ	4
fsr0	equ	4
c	equ	1
z	equ	0
pclath	equ	10
	FNCALL	_main,_delay
	FNCALL	_delay,_DelayMs
	FNROOT	_main
	global	_PORTD
psect	maintext,global,class=CODE,delta=2
global __pmaintext
__pmaintext:
_PORTD	set	8
	global	_TRISD
_TRISD	set	136
	file	"R4F.as"
	line	#
psect cinit,class=CODE,delta=2
global start_initialization
start_initialization:

psect cinit,class=CODE,delta=2
global end_of_initialization

;End of C runtime variable initialization code

end_of_initialization:
clrf status
ljmp _main	;jump to C main() function
psect	cstackCOMMON,class=COMMON,space=1
global __pcstackCOMMON
__pcstackCOMMON:
	global	?_DelayMs
?_DelayMs:	; 0 bytes @ 0x0
	global	??_DelayMs
??_DelayMs:	; 0 bytes @ 0x0
	global	?_main
?_main:	; 0 bytes @ 0x0
	ds	1
	global	DelayMs@cnt
DelayMs@cnt:	; 1 bytes @ 0x1
	ds	1
	global	DelayMs@i
DelayMs@i:	; 1 bytes @ 0x2
	ds	1
	global	DelayMs@_dcnt
DelayMs@_dcnt:	; 1 bytes @ 0x3
	ds	1
	global	?_delay
?_delay:	; 0 bytes @ 0x4
	global	delay@dly
delay@dly:	; 2 bytes @ 0x4
	ds	2
	global	??_delay
??_delay:	; 0 bytes @ 0x6
	global	delay@dly1
delay@dly1:	; 2 bytes @ 0x6
	ds	2
	global	??_main
??_main:	; 0 bytes @ 0x8
;;Data sizes: Strings 0, constant 0, data 0, bss 0, persistent 0 stack 0
;;Auto spaces:   Size  Autos    Used
;; COMMON          14      8       8
;; BANK0           80      0       0
;; BANK1           80      0       0
;; BANK3           96      0       0
;; BANK2           96      0       0

;;
;; Pointer list with targets:



;;
;; Critical Paths under _main in COMMON
;;
;;   _main->_delay
;;   _delay->_DelayMs
;;
;; Critical Paths under _main in BANK0
;;
;;   None.
;;
;; Critical Paths under _main in BANK1
;;
;;   None.
;;
;; Critical Paths under _main in BANK3
;;
;;   None.
;;
;; Critical Paths under _main in BANK2
;;
;;   None.

;;
;;Main: autosize = 0, tempsize = 0, incstack = 0, save=0
;;

;;
;;Call Graph Tables:
;;
;; ---------------------------------------------------------------------------------
;; (Depth) Function   	        Calls       Base Space   Used Autos Params    Refs
;; ---------------------------------------------------------------------------------
;; (0) _main                                                 0     0      0      75
;;                              _delay
;; ---------------------------------------------------------------------------------
;; (1) _delay                                                4     2      2      75
;;                                              4 COMMON     4     2      2
;;                            _DelayMs
;; ---------------------------------------------------------------------------------
;; (2) _DelayMs                                              4     4      0      45
;;                                              0 COMMON     4     4      0
;; ---------------------------------------------------------------------------------
;; Estimated maximum stack depth 2
;; ---------------------------------------------------------------------------------

;; Call Graph Graphs:

;; _main (ROOT)
;;   _delay
;;     _DelayMs
;;

;; Address spaces:

;;Name               Size   Autos  Total    Cost      Usage
;;BITCOMMON            E      0       0       0        0.0%
;;EEDATA             100      0       0       0        0.0%
;;NULL                 0      0       0       0        0.0%
;;CODE                 0      0       0       0        0.0%
;;COMMON               E      8       8       1       57.1%
;;BITSFR0              0      0       0       1        0.0%
;;SFR0                 0      0       0       1        0.0%
;;BITSFR1              0      0       0       2        0.0%
;;SFR1                 0      0       0       2        0.0%
;;STACK                0      0       2       2        0.0%
;;ABS                  0      0       0       3        0.0%
;;BITBANK0            50      0       0       4        0.0%
;;BITSFR3              0      0       0       4        0.0%
;;SFR3                 0      0       0       4        0.0%
;;BANK0               50      0       0       5        0.0%
;;BITSFR2              0      0       0       5        0.0%
;;SFR2                 0      0       0       5        0.0%
;;BITBANK1            50      0       0       6        0.0%
;;BANK1               50      0       0       7        0.0%
;;BITBANK3            60      0       0       8        0.0%
;;BANK3               60      0       0       9        0.0%
;;BITBANK2            60      0       0      10        0.0%
;;BANK2               60      0       0      11        0.0%
;;DATA                 0      0       0      12        0.0%

	global	_main
psect	maintext

;; *************** function _main *****************
;; Defined at:
;;		line 5 in file "D:\EMBEDDED\PROLIFIC\PIC\PIC_PGM_S\2    INTERFACING ONE LED  WHILE1\main.c"
;; Parameters:    Size  Location     Type
;;		None
;; Auto vars:     Size  Location     Type
;;		None
;; Return value:  Size  Location     Type
;;		None               void
;; Registers used:
;;		wreg, status,2, status,0, pclath, cstack
;; Tracked objects:
;;		On entry : 17F/0
;;		On exit  : 0/0
;;		Unchanged: 0/0
;; Data sizes:     COMMON   BANK0   BANK1   BANK3   BANK2
;;      Params:         0       0       0       0       0
;;      Locals:         0       0       0       0       0
;;      Temps:          0       0       0       0       0
;;      Totals:         0       0       0       0       0
;;Total ram usage:        0 bytes
;; Hardware stack levels required when called:    2
;; This function calls:
;;		_delay
;; This function is called by:
;;		Startup code after reset
;; This function uses a non-reentrant model
;;
psect	maintext
	file	"D:\EMBEDDED\PROLIFIC\PIC\PIC_PGM_S\2    INTERFACING ONE LED  WHILE1\main.c"
	line	5
	global	__size_of_main
	__size_of_main	equ	__end_of_main-_main
	
_main:	
	opt	stack 8
; Regs used in _main: [wreg+status,2+status,0+pclath+cstack]
	line	6
	
l1751:	
;main.c: 6: TRISD=0x00;
	bsf	status, 5	;RP0=1, select bank1
	bcf	status, 6	;RP1=0, select bank1
	clrf	(136)^080h	;volatile
	line	7
;main.c: 7: PORTD=0x00;
	bcf	status, 5	;RP0=0, select bank0
	bcf	status, 6	;RP1=0, select bank0
	clrf	(8)	;volatile
	line	8
;main.c: 8: while(1)
	
l577:	
	line	10
	
l1753:	
;main.c: 9: {
;main.c: 10: PORTD=0XFF;
	movlw	(0FFh)
	movwf	(8)	;volatile
	line	11
	
l1755:	
;main.c: 11: delay(1);
	movlw	low(01h)
	movwf	(?_delay)
	movlw	high(01h)
	movwf	((?_delay))+1
	fcall	_delay
	line	12
	
l1757:	
;main.c: 12: PORTD=0x00;
	bcf	status, 5	;RP0=0, select bank0
	bcf	status, 6	;RP1=0, select bank0
	clrf	(8)	;volatile
	line	13
	
l1759:	
;main.c: 13: delay(1);
	movlw	low(01h)
	movwf	(?_delay)
	movlw	high(01h)
	movwf	((?_delay))+1
	fcall	_delay
	line	14
	
l578:	
	line	8
	goto	l577
	
l579:	
	line	15
	
l580:	
	global	start
	ljmp	start
	opt stack 0
GLOBAL	__end_of_main
	__end_of_main:
;; =============== function _main ends ============

	signat	_main,88
	global	_delay
psect	text61,local,class=CODE,delta=2
global __ptext61
__ptext61:

;; *************** function _delay *****************
;; Defined at:
;;		line 31 in file "D:\EMBEDDED\PROLIFIC\PIC\PIC_PGM_S\2    INTERFACING ONE LED  WHILE1\delay.c"
;; Parameters:    Size  Location     Type
;;  dly             2    4[COMMON] unsigned int 
;; Auto vars:     Size  Location     Type
;;  dly1            2    6[COMMON] unsigned int 
;; Return value:  Size  Location     Type
;;		None               void
;; Registers used:
;;		wreg, status,2, status,0, pclath, cstack
;; Tracked objects:
;;		On entry : 0/0
;;		On exit  : 0/0
;;		Unchanged: 0/0
;; Data sizes:     COMMON   BANK0   BANK1   BANK3   BANK2
;;      Params:         2       0       0       0       0
;;      Locals:         2       0       0       0       0
;;      Temps:          0       0       0       0       0
;;      Totals:         4       0       0       0       0
;;Total ram usage:        4 bytes
;; Hardware stack levels used:    1
;; Hardware stack levels required when called:    1
;; This function calls:
;;		_DelayMs
;; This function is called by:
;;		_main
;; This function uses a non-reentrant model
;;
psect	text61
	file	"D:\EMBEDDED\PROLIFIC\PIC\PIC_PGM_S\2    INTERFACING ONE LED  WHILE1\delay.c"
	line	31
	global	__size_of_delay
	__size_of_delay	equ	__end_of_delay-_delay
	
_delay:	
	opt	stack 7
; Regs used in _delay: [wreg+status,2+status,0+pclath+cstack]
	line	33
	
l1743:	
;delay.c: 32: unsigned int dly1;
;delay.c: 33: for(dly1=0;dly1<dly;dly1++)
	movlw	low(0)
	movwf	(delay@dly1)
	movlw	high(0)
	movwf	((delay@dly1))+1
	goto	l13
	line	34
	
l14:	
	line	35
	
l1745:	
;delay.c: 34: {
;delay.c: 35: DelayMs(98);
	movlw	(062h)
	fcall	_DelayMs
	line	33
	
l1747:	
	movlw	low(01h)
	addwf	(delay@dly1),f
	skipnc
	incf	(delay@dly1+1),f
	movlw	high(01h)
	addwf	(delay@dly1+1),f
	
l13:	
	
l1749:	
	movf	(delay@dly+1),w
	subwf	(delay@dly1+1),w
	skipz
	goto	u2175
	movf	(delay@dly),w
	subwf	(delay@dly1),w
u2175:
	skipc
	goto	u2171
	goto	u2170
u2171:
	goto	l14
u2170:
	
l15:	
	line	37
	
l16:	
	return
	opt stack 0
GLOBAL	__end_of_delay
	__end_of_delay:
;; =============== function _delay ends ============

	signat	_delay,4216
	global	_DelayMs
psect	text62,local,class=CODE,delta=2
global __ptext62
__ptext62:

;; *************** function _DelayMs *****************
;; Defined at:
;;		line 12 in file "D:\EMBEDDED\PROLIFIC\PIC\PIC_PGM_S\2    INTERFACING ONE LED  WHILE1\delay.c"
;; Parameters:    Size  Location     Type
;;  cnt             1    wreg     unsigned char 
;; Auto vars:     Size  Location     Type
;;  cnt             1    1[COMMON] unsigned char 
;;  _dcnt           1    3[COMMON] unsigned char 
;;  i               1    2[COMMON] unsigned char 
;; Return value:  Size  Location     Type
;;		None               void
;; Registers used:
;;		wreg, status,2, status,0
;; Tracked objects:
;;		On entry : 0/0
;;		On exit  : 0/0
;;		Unchanged: 0/0
;; Data sizes:     COMMON   BANK0   BANK1   BANK3   BANK2
;;      Params:         0       0       0       0       0
;;      Locals:         3       0       0       0       0
;;      Temps:          1       0       0       0       0
;;      Totals:         4       0       0       0       0
;;Total ram usage:        4 bytes
;; Hardware stack levels used:    1
;; This function calls:
;;		Nothing
;; This function is called by:
;;		_delay
;; This function uses a non-reentrant model
;;
psect	text62
	file	"D:\EMBEDDED\PROLIFIC\PIC\PIC_PGM_S\2    INTERFACING ONE LED  WHILE1\delay.c"
	line	12
	global	__size_of_DelayMs
	__size_of_DelayMs	equ	__end_of_DelayMs-_DelayMs
	
_DelayMs:	
	opt	stack 6
; Regs used in _DelayMs: [wreg+status,2+status,0]
;DelayMs@cnt stored from wreg
	movwf	(DelayMs@cnt)
	line	21
;delay.c: 20: unsigned char i;
;delay.c: 21: do {
	
l3:	
	line	22
	
l949:	
;delay.c: 22: i = 4;
	movlw	(04h)
	movwf	(??_DelayMs+0)+0
	movf	(??_DelayMs+0)+0,w
	movwf	(DelayMs@i)
	line	23
;delay.c: 23: do {
	
l4:	
	line	24
;delay.c: 24: { unsigned char _dcnt; _dcnt = (250)/((12*1000L)/(4*1000L))|1; while(--_dcnt != 0) continue; };
	movlw	(053h)
	movwf	(??_DelayMs+0)+0
	movf	(??_DelayMs+0)+0,w
	movwf	(DelayMs@_dcnt)
	goto	l5
	
l6:	
	
l5:	
	
l951:	
	movlw	low(01h)
	subwf	(DelayMs@_dcnt),f
	btfss	status,2
	goto	u11
	goto	u10
u11:
	goto	l6
u10:
	
l7:	
	line	25
	
l953:	
;delay.c: 25: } while(--i);
	movlw	low(01h)
	subwf	(DelayMs@i),f
	btfss	status,2
	goto	u21
	goto	u20
u21:
	goto	l4
u20:
	
l8:	
	line	26
	
l955:	
;delay.c: 26: } while(--cnt);
	movlw	low(01h)
	subwf	(DelayMs@cnt),f
	btfss	status,2
	goto	u31
	goto	u30
u31:
	goto	l3
u30:
	
l9:	
	line	28
	
l10:	
	return
	opt stack 0
GLOBAL	__end_of_DelayMs
	__end_of_DelayMs:
;; =============== function _DelayMs ends ============

	signat	_DelayMs,4216
psect	text63,local,class=CODE,delta=2
global __ptext63
__ptext63:
	global	btemp
	btemp set 07Eh

	DABS	1,126,2	;btemp
	global	wtemp0
	wtemp0 set btemp
	end
